
os.elf:     file format elf32-littleriscv


Disassembly of section .init:

30001000 <_start>:
	.section .init
	.globl _start
	.type _start,@function

_start:
	csrrci x0, mstatus, 0x8  //Disable the interrupt globally
30001000:	30047073          	csrci	mstatus,8
.option push
.option norelax
	la gp, __global_pointer$
30001004:	00007197          	auipc	gp,0x7
30001008:	31418193          	addi	gp,gp,788 # 30008318 <__global_pointer$>
.option pop
	la sp, _sp
3000100c:	000ff117          	auipc	sp,0xff
30001010:	ff410113          	addi	sp,sp,-12 # 30100000 <_sp>
    #csrrsi x0, 0xbfe, 0x8 // Disable I-Cache

	/* Bob: Load code section from flash to ITCM */
	la a0, _itcm_lma
30001014:	00000517          	auipc	a0,0x0
30001018:	0ac50513          	addi	a0,a0,172 # 300010c0 <register_fini>
	la a1, _itcm
3000101c:	00000597          	auipc	a1,0x0
30001020:	0a458593          	addi	a1,a1,164 # 300010c0 <register_fini>
    beq a0, a1, 2f  /*If the ITCM phy-address same as the logic-address, then quit*/
30001024:	02b50263          	beq	a0,a1,30001048 <_start+0x48>
	la a2, _eitcm
30001028:	00005617          	auipc	a2,0x5
3000102c:	78060613          	addi	a2,a2,1920 # 300067a8 <_eitcm>
	bgeu a1, a2, 2f
30001030:	00c5fc63          	bgeu	a1,a2,30001048 <_start+0x48>
1:
	lw t0, (a0)
30001034:	00052283          	lw	t0,0(a0)
	sw t0, (a1)
30001038:	0055a023          	sw	t0,0(a1)
	addi a0, a0, 4
3000103c:	00450513          	addi	a0,a0,4
	addi a1, a1, 4
30001040:	00458593          	addi	a1,a1,4
	bltu a1, a2, 1b
30001044:	fec5e8e3          	bltu	a1,a2,30001034 <_start+0x34>
2:

	/* Load data section */
	la a0, _data_lma
30001048:	00006517          	auipc	a0,0x6
3000104c:	fb850513          	addi	a0,a0,-72 # 30007000 <_data>
	la a1, _data
30001050:	00006597          	auipc	a1,0x6
30001054:	fb058593          	addi	a1,a1,-80 # 30007000 <_data>
	la a2, _edata
30001058:	81418613          	addi	a2,gp,-2028 # 30007b2c <cur_thread_num>
	bgeu a1, a2, 2f
3000105c:	00c5fc63          	bgeu	a1,a2,30001074 <_start+0x74>
1:
	lw t0, (a0)
30001060:	00052283          	lw	t0,0(a0)
	sw t0, (a1)
30001064:	0055a023          	sw	t0,0(a1)
	addi a0, a0, 4
30001068:	00450513          	addi	a0,a0,4
	addi a1, a1, 4
3000106c:	00458593          	addi	a1,a1,4
	bltu a1, a2, 1b
30001070:	fec5e8e3          	bltu	a1,a2,30001060 <_start+0x60>
2:

	/* Clear bss section */
	la a0, __bss_start
30001074:	81418513          	addi	a0,gp,-2028 # 30007b2c <cur_thread_num>
	la a1, _end
30001078:	00017597          	auipc	a1,0x17
3000107c:	10058593          	addi	a1,a1,256 # 30018178 <_end>
	bgeu a0, a1, 2f
30001080:	00b57863          	bgeu	a0,a1,30001090 <_start+0x90>
1:
	sw zero, (a0)
30001084:	00052023          	sw	zero,0(a0)
	addi a0, a0, 4
30001088:	00450513          	addi	a0,a0,4
	bltu a0, a1, 1b
3000108c:	feb56ce3          	bltu	a0,a1,30001084 <_start+0x84>
2:

	/* Call global constructors */
	la a0, __libc_fini_array
30001090:	00003517          	auipc	a0,0x3
30001094:	f0c50513          	addi	a0,a0,-244 # 30003f9c <__libc_fini_array>
	call atexit
30001098:	6c1020ef          	jal	ra,30003f58 <atexit>
	call __libc_init_array
3000109c:	75d020ef          	jal	ra,30003ff8 <__libc_init_array>
	li t0, MSTATUS_FS
	csrs mstatus, t0 
	csrw fcsr, x0   
#endif

	jal pre_process
300010a0:	629010ef          	jal	ra,30002ec8 <pre_process>

	/* argc = argv = 0 */
	# call reset_handler
	li t1, 8
300010a4:	00800313          	li	t1,8
	csrw mstatus, t1
300010a8:	30031073          	csrw	mstatus,t1
	li a0, 0
300010ac:	00000513          	li	a0,0
	li a1, 0
300010b0:	00000593          	li	a1,0
	call main
300010b4:	651010ef          	jal	ra,30002f04 <main>
	tail exit
300010b8:	6b50206f          	j	30003f6c <exit>

1:
	j 1b
300010bc:	0000006f          	j	300010bc <_start+0xbc>

Disassembly of section .text:

300010c0 <register_fini>:
300010c0:	00000793          	li	a5,0
300010c4:	00078863          	beqz	a5,300010d4 <register_fini+0x14>
300010c8:	30004537          	lui	a0,0x30004
300010cc:	f9c50513          	addi	a0,a0,-100 # 30003f9c <__libc_fini_array>
300010d0:	6890206f          	j	30003f58 <atexit>
300010d4:	00008067          	ret
	...

300010e0 <switch_to>:

# 线程切换汇编代码
.globl switch_to
.align 4
switch_to:
	csrrw	t6, mscratch, t6
300010e0:	340f9ff3          	csrrw	t6,mscratch,t6

	reg_save t6			
300010e4:	001fa023          	sw	ra,0(t6)
300010e8:	002fa223          	sw	sp,4(t6)
300010ec:	004fa623          	sw	tp,12(t6)
300010f0:	005fa823          	sw	t0,16(t6)
300010f4:	006faa23          	sw	t1,20(t6)
300010f8:	007fac23          	sw	t2,24(t6)
300010fc:	008fae23          	sw	s0,28(t6)
30001100:	029fa023          	sw	s1,32(t6)
30001104:	02afa223          	sw	a0,36(t6)
30001108:	02bfa423          	sw	a1,40(t6)
3000110c:	02cfa623          	sw	a2,44(t6)
30001110:	02dfa823          	sw	a3,48(t6)
30001114:	02efaa23          	sw	a4,52(t6)
30001118:	02ffac23          	sw	a5,56(t6)
3000111c:	030fae23          	sw	a6,60(t6)
30001120:	051fa023          	sw	a7,64(t6)
30001124:	052fa223          	sw	s2,68(t6)
30001128:	053fa423          	sw	s3,72(t6)
3000112c:	054fa623          	sw	s4,76(t6)
30001130:	055fa823          	sw	s5,80(t6)
30001134:	056faa23          	sw	s6,84(t6)
30001138:	057fac23          	sw	s7,88(t6)
3000113c:	058fae23          	sw	s8,92(t6)
30001140:	079fa023          	sw	s9,96(t6)
30001144:	07afa223          	sw	s10,100(t6)
30001148:	07bfa423          	sw	s11,104(t6)
3000114c:	30002373          	csrr	t1,mstatus
30001150:	066fa623          	sw	t1,108(t6)
30001154:	30502373          	csrr	t1,mtvec
30001158:	066fa823          	sw	t1,112(t6)
3000115c:	34102373          	csrr	t1,mepc
30001160:	066fac23          	sw	t1,120(t6)
30001164:	07cfae23          	sw	t3,124(t6)
30001168:	09dfa023          	sw	t4,128(t6)
3000116c:	09efa223          	sw	t5,132(t6)
	mv	t5, t6	
30001170:	000f8f13          	mv	t5,t6
	csrr	t6, mscratch
30001174:	34002ff3          	csrr	t6,mscratch
	sw	t6, TCB_SIZE(t5)
30001178:	09ff2423          	sw	t6,136(t5)


	csrw	mscratch, a0
3000117c:	34051073          	csrw	mscratch,a0
	mv	t6, a0
30001180:	00050f93          	mv	t6,a0

	reg_restore t6
30001184:	000fa083          	lw	ra,0(t6)
30001188:	004fa503          	lw	a0,4(t6)
3000118c:	004fa103          	lw	sp,4(t6)
30001190:	00cfa203          	lw	tp,12(t6)
30001194:	010fa283          	lw	t0,16(t6)
30001198:	014fa303          	lw	t1,20(t6)
3000119c:	018fa383          	lw	t2,24(t6)
300011a0:	01cfa403          	lw	s0,28(t6)
300011a4:	020fa483          	lw	s1,32(t6)
300011a8:	024fa503          	lw	a0,36(t6)
300011ac:	028fa583          	lw	a1,40(t6)
300011b0:	02cfa603          	lw	a2,44(t6)
300011b4:	030fa683          	lw	a3,48(t6)
300011b8:	034fa703          	lw	a4,52(t6)
300011bc:	038fa783          	lw	a5,56(t6)
300011c0:	03cfa803          	lw	a6,60(t6)
300011c4:	040fa883          	lw	a7,64(t6)
300011c8:	044fa903          	lw	s2,68(t6)
300011cc:	048fa983          	lw	s3,72(t6)
300011d0:	04cfaa03          	lw	s4,76(t6)
300011d4:	050faa83          	lw	s5,80(t6)
300011d8:	054fab03          	lw	s6,84(t6)
300011dc:	058fab83          	lw	s7,88(t6)
300011e0:	05cfac03          	lw	s8,92(t6)
300011e4:	060fac83          	lw	s9,96(t6)
300011e8:	064fad03          	lw	s10,100(t6)
300011ec:	068fad83          	lw	s11,104(t6)
300011f0:	06cfae03          	lw	t3,108(t6)
300011f4:	300e1073          	csrw	mstatus,t3
300011f8:	070fae03          	lw	t3,112(t6)
300011fc:	305e1073          	csrw	mtvec,t3
30001200:	078fae03          	lw	t3,120(t6)
30001204:	341e1073          	csrw	mepc,t3
30001208:	07cfae03          	lw	t3,124(t6)
3000120c:	080fae83          	lw	t4,128(t6)
30001210:	084faf03          	lw	t5,132(t6)
30001214:	088faf83          	lw	t6,136(t6)

	ret
30001218:	00008067          	ret
3000121c:	00000013          	nop

30001220 <int_vector>:
.globl int_vector

.align 4
int_vector:

	csrrw	t6, mscratch, t6
30001220:	340f9ff3          	csrrw	t6,mscratch,t6
	addi t6,t6,TCB_SIZE+4
30001224:	08cf8f93          	addi	t6,t6,140
	reg_save t6
30001228:	001fa023          	sw	ra,0(t6)
3000122c:	002fa223          	sw	sp,4(t6)
30001230:	004fa623          	sw	tp,12(t6)
30001234:	005fa823          	sw	t0,16(t6)
30001238:	006faa23          	sw	t1,20(t6)
3000123c:	007fac23          	sw	t2,24(t6)
30001240:	008fae23          	sw	s0,28(t6)
30001244:	029fa023          	sw	s1,32(t6)
30001248:	02afa223          	sw	a0,36(t6)
3000124c:	02bfa423          	sw	a1,40(t6)
30001250:	02cfa623          	sw	a2,44(t6)
30001254:	02dfa823          	sw	a3,48(t6)
30001258:	02efaa23          	sw	a4,52(t6)
3000125c:	02ffac23          	sw	a5,56(t6)
30001260:	030fae23          	sw	a6,60(t6)
30001264:	051fa023          	sw	a7,64(t6)
30001268:	052fa223          	sw	s2,68(t6)
3000126c:	053fa423          	sw	s3,72(t6)
30001270:	054fa623          	sw	s4,76(t6)
30001274:	055fa823          	sw	s5,80(t6)
30001278:	056faa23          	sw	s6,84(t6)
3000127c:	057fac23          	sw	s7,88(t6)
30001280:	058fae23          	sw	s8,92(t6)
30001284:	079fa023          	sw	s9,96(t6)
30001288:	07afa223          	sw	s10,100(t6)
3000128c:	07bfa423          	sw	s11,104(t6)
30001290:	30002373          	csrr	t1,mstatus
30001294:	066fa623          	sw	t1,108(t6)
30001298:	30502373          	csrr	t1,mtvec
3000129c:	066fa823          	sw	t1,112(t6)
300012a0:	34102373          	csrr	t1,mepc
300012a4:	066fac23          	sw	t1,120(t6)
300012a8:	07cfae23          	sw	t3,124(t6)
300012ac:	09dfa023          	sw	t4,128(t6)
300012b0:	09efa223          	sw	t5,132(t6)


	mv	t5, t6	
300012b4:	000f8f13          	mv	t5,t6
	csrr	t6, mscratch
300012b8:	34002ff3          	csrr	t6,mscratch
	sw	t6, TCB_SIZE(t5)
300012bc:	09ff2423          	sw	t6,136(t5)


	addi t5,t5,-TCB_SIZE-4
300012c0:	f74f0f13          	addi	t5,t5,-140
	csrw	mscratch, t5
300012c4:	340f1073          	csrw	mscratch,t5

	csrr	a0, mepc
300012c8:	34102573          	csrr	a0,mepc
	csrr	a1, mcause
300012cc:	342025f3          	csrr	a1,mcause
	call	int_handler
300012d0:	271010ef          	jal	ra,30002d40 <int_handler>


	csrw	mepc, a0
300012d4:	34151073          	csrw	mepc,a0


	csrr	t6, mscratch
300012d8:	34002ff3          	csrr	t6,mscratch
	addi t6,t6,TCB_SIZE+4
300012dc:	08cf8f93          	addi	t6,t6,140
	reg_restore t6
300012e0:	000fa083          	lw	ra,0(t6)
300012e4:	004fa503          	lw	a0,4(t6)
300012e8:	004fa103          	lw	sp,4(t6)
300012ec:	00cfa203          	lw	tp,12(t6)
300012f0:	010fa283          	lw	t0,16(t6)
300012f4:	014fa303          	lw	t1,20(t6)
300012f8:	018fa383          	lw	t2,24(t6)
300012fc:	01cfa403          	lw	s0,28(t6)
30001300:	020fa483          	lw	s1,32(t6)
30001304:	024fa503          	lw	a0,36(t6)
30001308:	028fa583          	lw	a1,40(t6)
3000130c:	02cfa603          	lw	a2,44(t6)
30001310:	030fa683          	lw	a3,48(t6)
30001314:	034fa703          	lw	a4,52(t6)
30001318:	038fa783          	lw	a5,56(t6)
3000131c:	03cfa803          	lw	a6,60(t6)
30001320:	040fa883          	lw	a7,64(t6)
30001324:	044fa903          	lw	s2,68(t6)
30001328:	048fa983          	lw	s3,72(t6)
3000132c:	04cfaa03          	lw	s4,76(t6)
30001330:	050faa83          	lw	s5,80(t6)
30001334:	054fab03          	lw	s6,84(t6)
30001338:	058fab83          	lw	s7,88(t6)
3000133c:	05cfac03          	lw	s8,92(t6)
30001340:	060fac83          	lw	s9,96(t6)
30001344:	064fad03          	lw	s10,100(t6)
30001348:	068fad83          	lw	s11,104(t6)
3000134c:	06cfae03          	lw	t3,108(t6)
30001350:	300e1073          	csrw	mstatus,t3
30001354:	070fae03          	lw	t3,112(t6)
30001358:	305e1073          	csrw	mtvec,t3
3000135c:	078fae03          	lw	t3,120(t6)
30001360:	341e1073          	csrw	mepc,t3
30001364:	07cfae03          	lw	t3,124(t6)
30001368:	080fae83          	lw	t4,128(t6)
3000136c:	084faf03          	lw	t5,132(t6)
30001370:	088faf83          	lw	t6,136(t6)

	mret
30001374:	30200073          	mret

30001378 <uart_putc>:

#define UART		((UART_Typedef	*) UART_BASE	)
#define txdata		UART_BASE + 0xc

void uart_putc(int c)
{
30001378:	fe010113          	addi	sp,sp,-32
3000137c:	00812e23          	sw	s0,28(sp)
30001380:	02010413          	addi	s0,sp,32
30001384:	fea42623          	sw	a0,-20(s0)
        //#define SERIAL_LSR_THRE         0x20
	//while ((DEV_UART2->LSR & SERIAL_LSR_THRE) == 0) ;
        *( volatile int * ) ( txdata ) = c;
30001388:	400007b7          	lui	a5,0x40000
3000138c:	01078793          	addi	a5,a5,16 # 40000010 <_sp+0xff00010>
30001390:	fec42703          	lw	a4,-20(s0)
30001394:	00e7a023          	sw	a4,0(a5)
}
30001398:	00000013          	nop
3000139c:	01c12403          	lw	s0,28(sp)
300013a0:	02010113          	addi	sp,sp,32
300013a4:	00008067          	ret

300013a8 <outbyte>:

int outbyte(int c)
{
300013a8:	fe010113          	addi	sp,sp,-32
300013ac:	00112e23          	sw	ra,28(sp)
300013b0:	00812c23          	sw	s0,24(sp)
300013b4:	02010413          	addi	s0,sp,32
300013b8:	fea42623          	sw	a0,-20(s0)
	uart_putc(c);
300013bc:	fec42503          	lw	a0,-20(s0)
300013c0:	fb9ff0ef          	jal	ra,30001378 <uart_putc>
	if (c =='\n')
300013c4:	fec42703          	lw	a4,-20(s0)
300013c8:	00a00793          	li	a5,10
300013cc:	00f71663          	bne	a4,a5,300013d8 <outbyte+0x30>
		uart_putc('\r');
300013d0:	00d00513          	li	a0,13
300013d4:	fa5ff0ef          	jal	ra,30001378 <uart_putc>
	return c;
300013d8:	fec42783          	lw	a5,-20(s0)
}
300013dc:	00078513          	mv	a0,a5
300013e0:	01c12083          	lw	ra,28(sp)
300013e4:	01812403          	lw	s0,24(sp)
300013e8:	02010113          	addi	sp,sp,32
300013ec:	00008067          	ret

300013f0 <printchar>:



static void printchar(char **str, int c)
{
300013f0:	fe010113          	addi	sp,sp,-32
300013f4:	00112e23          	sw	ra,28(sp)
300013f8:	00812c23          	sw	s0,24(sp)
300013fc:	02010413          	addi	s0,sp,32
30001400:	fea42623          	sw	a0,-20(s0)
30001404:	feb42423          	sw	a1,-24(s0)
	extern int putchar(int c);

	if (str) {
30001408:	fec42783          	lw	a5,-20(s0)
3000140c:	02078863          	beqz	a5,3000143c <printchar+0x4c>
		**str = c;
30001410:	fec42783          	lw	a5,-20(s0)
30001414:	0007a783          	lw	a5,0(a5)
30001418:	fe842703          	lw	a4,-24(s0)
3000141c:	0ff77713          	zext.b	a4,a4
30001420:	00e78023          	sb	a4,0(a5)
		++(*str);
30001424:	fec42783          	lw	a5,-20(s0)
30001428:	0007a783          	lw	a5,0(a5)
3000142c:	00178713          	addi	a4,a5,1
30001430:	fec42783          	lw	a5,-20(s0)
30001434:	00e7a023          	sw	a4,0(a5)
	}
	else (void)putchar(c);
}
30001438:	00c0006f          	j	30001444 <printchar+0x54>
	else (void)putchar(c);
3000143c:	fe842503          	lw	a0,-24(s0)
30001440:	f69ff0ef          	jal	ra,300013a8 <outbyte>
}
30001444:	00000013          	nop
30001448:	01c12083          	lw	ra,28(sp)
3000144c:	01812403          	lw	s0,24(sp)
30001450:	02010113          	addi	sp,sp,32
30001454:	00008067          	ret

30001458 <prints>:

#define PAD_RIGHT 1
#define PAD_ZERO 2

static int prints(char **out, const char *string, int width, int pad)
{
30001458:	fd010113          	addi	sp,sp,-48
3000145c:	02112623          	sw	ra,44(sp)
30001460:	02812423          	sw	s0,40(sp)
30001464:	02912223          	sw	s1,36(sp)
30001468:	03212023          	sw	s2,32(sp)
3000146c:	01312e23          	sw	s3,28(sp)
30001470:	01412c23          	sw	s4,24(sp)
30001474:	03010413          	addi	s0,sp,48
30001478:	fca42e23          	sw	a0,-36(s0)
3000147c:	fcb42c23          	sw	a1,-40(s0)
30001480:	fcc42a23          	sw	a2,-44(s0)
30001484:	fcd42823          	sw	a3,-48(s0)
	register int pc = 0, padchar = ' ';
30001488:	00000493          	li	s1,0
3000148c:	02000a13          	li	s4,32

	if (width > 0) {
30001490:	fd442783          	lw	a5,-44(s0)
30001494:	04f05663          	blez	a5,300014e0 <prints+0x88>
		register int len = 0;
30001498:	00000913          	li	s2,0
		register const char *ptr;
		for (ptr = string; *ptr; ++ptr) ++len;
3000149c:	fd842983          	lw	s3,-40(s0)
300014a0:	00c0006f          	j	300014ac <prints+0x54>
300014a4:	00190913          	addi	s2,s2,1
300014a8:	00198993          	addi	s3,s3,1
300014ac:	0009c783          	lbu	a5,0(s3)
300014b0:	fe079ae3          	bnez	a5,300014a4 <prints+0x4c>
		if (len >= width) width = 0;
300014b4:	fd442783          	lw	a5,-44(s0)
300014b8:	00f94663          	blt	s2,a5,300014c4 <prints+0x6c>
300014bc:	fc042a23          	sw	zero,-44(s0)
300014c0:	0100006f          	j	300014d0 <prints+0x78>
		else width -= len;
300014c4:	fd442783          	lw	a5,-44(s0)
300014c8:	412787b3          	sub	a5,a5,s2
300014cc:	fcf42a23          	sw	a5,-44(s0)
		if (pad & PAD_ZERO) padchar = '0';
300014d0:	fd042783          	lw	a5,-48(s0)
300014d4:	0027f793          	andi	a5,a5,2
300014d8:	00078463          	beqz	a5,300014e0 <prints+0x88>
300014dc:	03000a13          	li	s4,48
	}
	if (!(pad & PAD_RIGHT)) {
300014e0:	fd042783          	lw	a5,-48(s0)
300014e4:	0017f793          	andi	a5,a5,1
300014e8:	04079a63          	bnez	a5,3000153c <prints+0xe4>
		for ( ; width > 0; --width) {
300014ec:	0200006f          	j	3000150c <prints+0xb4>
			printchar (out, padchar);
300014f0:	000a0593          	mv	a1,s4
300014f4:	fdc42503          	lw	a0,-36(s0)
300014f8:	ef9ff0ef          	jal	ra,300013f0 <printchar>
			++pc;
300014fc:	00148493          	addi	s1,s1,1
		for ( ; width > 0; --width) {
30001500:	fd442783          	lw	a5,-44(s0)
30001504:	fff78793          	addi	a5,a5,-1
30001508:	fcf42a23          	sw	a5,-44(s0)
3000150c:	fd442783          	lw	a5,-44(s0)
30001510:	fef040e3          	bgtz	a5,300014f0 <prints+0x98>
		}
	}
	for ( ; *string ; ++string) {
30001514:	0280006f          	j	3000153c <prints+0xe4>
		printchar (out, *string);
30001518:	fd842783          	lw	a5,-40(s0)
3000151c:	0007c783          	lbu	a5,0(a5)
30001520:	00078593          	mv	a1,a5
30001524:	fdc42503          	lw	a0,-36(s0)
30001528:	ec9ff0ef          	jal	ra,300013f0 <printchar>
		++pc;
3000152c:	00148493          	addi	s1,s1,1
	for ( ; *string ; ++string) {
30001530:	fd842783          	lw	a5,-40(s0)
30001534:	00178793          	addi	a5,a5,1
30001538:	fcf42c23          	sw	a5,-40(s0)
3000153c:	fd842783          	lw	a5,-40(s0)
30001540:	0007c783          	lbu	a5,0(a5)
30001544:	fc079ae3          	bnez	a5,30001518 <prints+0xc0>
	}
	for ( ; width > 0; --width) {
30001548:	0200006f          	j	30001568 <prints+0x110>
		printchar (out, padchar);
3000154c:	000a0593          	mv	a1,s4
30001550:	fdc42503          	lw	a0,-36(s0)
30001554:	e9dff0ef          	jal	ra,300013f0 <printchar>
		++pc;
30001558:	00148493          	addi	s1,s1,1
	for ( ; width > 0; --width) {
3000155c:	fd442783          	lw	a5,-44(s0)
30001560:	fff78793          	addi	a5,a5,-1
30001564:	fcf42a23          	sw	a5,-44(s0)
30001568:	fd442783          	lw	a5,-44(s0)
3000156c:	fef040e3          	bgtz	a5,3000154c <prints+0xf4>
	}

	return pc;
30001570:	00048793          	mv	a5,s1
}
30001574:	00078513          	mv	a0,a5
30001578:	02c12083          	lw	ra,44(sp)
3000157c:	02812403          	lw	s0,40(sp)
30001580:	02412483          	lw	s1,36(sp)
30001584:	02012903          	lw	s2,32(sp)
30001588:	01c12983          	lw	s3,28(sp)
3000158c:	01812a03          	lw	s4,24(sp)
30001590:	03010113          	addi	sp,sp,48
30001594:	00008067          	ret

30001598 <printi>:

/* the following should be enough for 32 bit int */
#define PRINT_BUF_LEN 12

static int printi(char **out, int i, int b, int sg, int width, int pad, int letbase)
{
30001598:	fb010113          	addi	sp,sp,-80
3000159c:	04112623          	sw	ra,76(sp)
300015a0:	04812423          	sw	s0,72(sp)
300015a4:	04912223          	sw	s1,68(sp)
300015a8:	05212023          	sw	s2,64(sp)
300015ac:	03312e23          	sw	s3,60(sp)
300015b0:	03412c23          	sw	s4,56(sp)
300015b4:	05010413          	addi	s0,sp,80
300015b8:	fca42623          	sw	a0,-52(s0)
300015bc:	fcb42423          	sw	a1,-56(s0)
300015c0:	fcc42223          	sw	a2,-60(s0)
300015c4:	fcd42023          	sw	a3,-64(s0)
300015c8:	fae42e23          	sw	a4,-68(s0)
300015cc:	faf42c23          	sw	a5,-72(s0)
300015d0:	fb042a23          	sw	a6,-76(s0)
	char print_buf[PRINT_BUF_LEN];
	register char *s;
	register int t, neg = 0, pc = 0;
300015d4:	00000a13          	li	s4,0
300015d8:	00000993          	li	s3,0
	register unsigned int u = i;
300015dc:	fc842083          	lw	ra,-56(s0)

	if (i == 0) {
300015e0:	fc842783          	lw	a5,-56(s0)
300015e4:	02079863          	bnez	a5,30001614 <printi+0x7c>
		print_buf[0] = '0';
300015e8:	03000793          	li	a5,48
300015ec:	fcf40a23          	sb	a5,-44(s0)
		print_buf[1] = '\0';
300015f0:	fc040aa3          	sb	zero,-43(s0)
		return prints (out, print_buf, width, pad);
300015f4:	fd440793          	addi	a5,s0,-44
300015f8:	fb842683          	lw	a3,-72(s0)
300015fc:	fbc42603          	lw	a2,-68(s0)
30001600:	00078593          	mv	a1,a5
30001604:	fcc42503          	lw	a0,-52(s0)
30001608:	e51ff0ef          	jal	ra,30001458 <prints>
3000160c:	00050793          	mv	a5,a0
30001610:	0e00006f          	j	300016f0 <printi+0x158>
	}

	if (sg && b == 10 && i < 0) {
30001614:	fc042783          	lw	a5,-64(s0)
30001618:	02078463          	beqz	a5,30001640 <printi+0xa8>
3000161c:	fc442703          	lw	a4,-60(s0)
30001620:	00a00793          	li	a5,10
30001624:	00f71e63          	bne	a4,a5,30001640 <printi+0xa8>
30001628:	fc842783          	lw	a5,-56(s0)
3000162c:	0007da63          	bgez	a5,30001640 <printi+0xa8>
		neg = 1;
30001630:	00100a13          	li	s4,1
		u = -i;
30001634:	fc842783          	lw	a5,-56(s0)
30001638:	40f007b3          	neg	a5,a5
3000163c:	00078093          	mv	ra,a5
	}

	s = print_buf + PRINT_BUF_LEN-1;
30001640:	fd440493          	addi	s1,s0,-44
30001644:	00b48493          	addi	s1,s1,11
	*s = '\0';
30001648:	00048023          	sb	zero,0(s1)

	while (u) {
3000164c:	0400006f          	j	3000168c <printi+0xf4>
		t = u % b;
30001650:	fc442783          	lw	a5,-60(s0)
30001654:	02f0f7b3          	remu	a5,ra,a5
30001658:	00078913          	mv	s2,a5
		if( t >= 10 )
3000165c:	00900793          	li	a5,9
30001660:	0127d863          	bge	a5,s2,30001670 <printi+0xd8>
			t += letbase - '0' - 10;
30001664:	fb442783          	lw	a5,-76(s0)
30001668:	fc678793          	addi	a5,a5,-58
3000166c:	00f90933          	add	s2,s2,a5
		*--s = t + '0';
30001670:	0ff97793          	zext.b	a5,s2
30001674:	fff48493          	addi	s1,s1,-1
30001678:	03078793          	addi	a5,a5,48
3000167c:	0ff7f793          	zext.b	a5,a5
30001680:	00f48023          	sb	a5,0(s1)
		u /= b;
30001684:	fc442783          	lw	a5,-60(s0)
30001688:	02f0d0b3          	divu	ra,ra,a5
	while (u) {
3000168c:	fc0092e3          	bnez	ra,30001650 <printi+0xb8>
	}

	if (neg) {
30001690:	040a0263          	beqz	s4,300016d4 <printi+0x13c>
		if( width && (pad & PAD_ZERO) ) {
30001694:	fbc42783          	lw	a5,-68(s0)
30001698:	02078863          	beqz	a5,300016c8 <printi+0x130>
3000169c:	fb842783          	lw	a5,-72(s0)
300016a0:	0027f793          	andi	a5,a5,2
300016a4:	02078263          	beqz	a5,300016c8 <printi+0x130>
			printchar (out, '-');
300016a8:	02d00593          	li	a1,45
300016ac:	fcc42503          	lw	a0,-52(s0)
300016b0:	d41ff0ef          	jal	ra,300013f0 <printchar>
			++pc;
300016b4:	00198993          	addi	s3,s3,1
			--width;
300016b8:	fbc42783          	lw	a5,-68(s0)
300016bc:	fff78793          	addi	a5,a5,-1
300016c0:	faf42e23          	sw	a5,-68(s0)
300016c4:	0100006f          	j	300016d4 <printi+0x13c>
		}
		else {
			*--s = '-';
300016c8:	fff48493          	addi	s1,s1,-1
300016cc:	02d00793          	li	a5,45
300016d0:	00f48023          	sb	a5,0(s1)
		}
	}

	return pc + prints (out, s, width, pad);
300016d4:	fb842683          	lw	a3,-72(s0)
300016d8:	fbc42603          	lw	a2,-68(s0)
300016dc:	00048593          	mv	a1,s1
300016e0:	fcc42503          	lw	a0,-52(s0)
300016e4:	d75ff0ef          	jal	ra,30001458 <prints>
300016e8:	00050793          	mv	a5,a0
300016ec:	00f987b3          	add	a5,s3,a5
}
300016f0:	00078513          	mv	a0,a5
300016f4:	04c12083          	lw	ra,76(sp)
300016f8:	04812403          	lw	s0,72(sp)
300016fc:	04412483          	lw	s1,68(sp)
30001700:	04012903          	lw	s2,64(sp)
30001704:	03c12983          	lw	s3,60(sp)
30001708:	03812a03          	lw	s4,56(sp)
3000170c:	05010113          	addi	sp,sp,80
30001710:	00008067          	ret

30001714 <print>:

static int print( char **out, const char *format, va_list args )
{
30001714:	fc010113          	addi	sp,sp,-64
30001718:	02112e23          	sw	ra,60(sp)
3000171c:	02812c23          	sw	s0,56(sp)
30001720:	02912a23          	sw	s1,52(sp)
30001724:	03212823          	sw	s2,48(sp)
30001728:	03312623          	sw	s3,44(sp)
3000172c:	04010413          	addi	s0,sp,64
30001730:	fca42623          	sw	a0,-52(s0)
30001734:	fcb42423          	sw	a1,-56(s0)
30001738:	fcc42223          	sw	a2,-60(s0)
	register int width, pad;
	register int pc = 0;
3000173c:	00000493          	li	s1,0
	char scr[2];

	for (; *format != 0; ++format) {
30001740:	2d40006f          	j	30001a14 <print+0x300>
		if (*format == '%') {
30001744:	fc842783          	lw	a5,-56(s0)
30001748:	0007c703          	lbu	a4,0(a5)
3000174c:	02500793          	li	a5,37
30001750:	28f71a63          	bne	a4,a5,300019e4 <print+0x2d0>
			++format;
30001754:	fc842783          	lw	a5,-56(s0)
30001758:	00178793          	addi	a5,a5,1
3000175c:	fcf42423          	sw	a5,-56(s0)
			width = pad = 0;
30001760:	00000993          	li	s3,0
30001764:	00098913          	mv	s2,s3
			if (*format == '\0') break;
30001768:	fc842783          	lw	a5,-56(s0)
3000176c:	0007c783          	lbu	a5,0(a5)
30001770:	2a078a63          	beqz	a5,30001a24 <print+0x310>
			if (*format == '%') goto out;
30001774:	fc842783          	lw	a5,-56(s0)
30001778:	0007c703          	lbu	a4,0(a5)
3000177c:	02500793          	li	a5,37
30001780:	26f70663          	beq	a4,a5,300019ec <print+0x2d8>
			if (*format == '-') {
30001784:	fc842783          	lw	a5,-56(s0)
30001788:	0007c703          	lbu	a4,0(a5)
3000178c:	02d00793          	li	a5,45
30001790:	02f71463          	bne	a4,a5,300017b8 <print+0xa4>
				++format;
30001794:	fc842783          	lw	a5,-56(s0)
30001798:	00178793          	addi	a5,a5,1
3000179c:	fcf42423          	sw	a5,-56(s0)
				pad = PAD_RIGHT;
300017a0:	00100993          	li	s3,1
			}
			while (*format == '0') {
300017a4:	0140006f          	j	300017b8 <print+0xa4>
				++format;
300017a8:	fc842783          	lw	a5,-56(s0)
300017ac:	00178793          	addi	a5,a5,1
300017b0:	fcf42423          	sw	a5,-56(s0)
				pad |= PAD_ZERO;
300017b4:	0029e993          	ori	s3,s3,2
			while (*format == '0') {
300017b8:	fc842783          	lw	a5,-56(s0)
300017bc:	0007c703          	lbu	a4,0(a5)
300017c0:	03000793          	li	a5,48
300017c4:	fef702e3          	beq	a4,a5,300017a8 <print+0x94>
			}
			for ( ; *format >= '0' && *format <= '9'; ++format) {
300017c8:	0340006f          	j	300017fc <print+0xe8>
				width *= 10;
300017cc:	00090793          	mv	a5,s2
300017d0:	00279793          	slli	a5,a5,0x2
300017d4:	012787b3          	add	a5,a5,s2
300017d8:	00179793          	slli	a5,a5,0x1
300017dc:	00078913          	mv	s2,a5
				width += *format - '0';
300017e0:	fc842783          	lw	a5,-56(s0)
300017e4:	0007c783          	lbu	a5,0(a5)
300017e8:	fd078793          	addi	a5,a5,-48
300017ec:	00f90933          	add	s2,s2,a5
			for ( ; *format >= '0' && *format <= '9'; ++format) {
300017f0:	fc842783          	lw	a5,-56(s0)
300017f4:	00178793          	addi	a5,a5,1
300017f8:	fcf42423          	sw	a5,-56(s0)
300017fc:	fc842783          	lw	a5,-56(s0)
30001800:	0007c703          	lbu	a4,0(a5)
30001804:	02f00793          	li	a5,47
30001808:	00e7fa63          	bgeu	a5,a4,3000181c <print+0x108>
3000180c:	fc842783          	lw	a5,-56(s0)
30001810:	0007c703          	lbu	a4,0(a5)
30001814:	03900793          	li	a5,57
30001818:	fae7fae3          	bgeu	a5,a4,300017cc <print+0xb8>
			}
			if( *format == 's' ) {
3000181c:	fc842783          	lw	a5,-56(s0)
30001820:	0007c703          	lbu	a4,0(a5)
30001824:	07300793          	li	a5,115
30001828:	04f71663          	bne	a4,a5,30001874 <print+0x160>
				register char *s = (char *)((long)va_arg( args, int ));
3000182c:	fc442783          	lw	a5,-60(s0)
30001830:	00478713          	addi	a4,a5,4
30001834:	fce42223          	sw	a4,-60(s0)
30001838:	0007a783          	lw	a5,0(a5)
3000183c:	00078093          	mv	ra,a5
				pc += prints (out, s?s:"(null)", width, pad);
30001840:	00008663          	beqz	ra,3000184c <print+0x138>
30001844:	00008793          	mv	a5,ra
30001848:	00c0006f          	j	30001854 <print+0x140>
3000184c:	300077b7          	lui	a5,0x30007
30001850:	00078793          	mv	a5,a5
30001854:	00098693          	mv	a3,s3
30001858:	00090613          	mv	a2,s2
3000185c:	00078593          	mv	a1,a5
30001860:	fcc42503          	lw	a0,-52(s0)
30001864:	bf5ff0ef          	jal	ra,30001458 <prints>
30001868:	00050793          	mv	a5,a0
3000186c:	00f484b3          	add	s1,s1,a5
				continue;
30001870:	1980006f          	j	30001a08 <print+0x2f4>
			}
			if( *format == 'd' ) {
30001874:	fc842783          	lw	a5,-56(s0)
30001878:	0007c703          	lbu	a4,0(a5) # 30007000 <_data>
3000187c:	06400793          	li	a5,100
30001880:	02f71e63          	bne	a4,a5,300018bc <print+0x1a8>
				pc += printi (out, va_arg( args, int ), 10, 1, width, pad, 'a');
30001884:	fc442783          	lw	a5,-60(s0)
30001888:	00478713          	addi	a4,a5,4
3000188c:	fce42223          	sw	a4,-60(s0)
30001890:	0007a583          	lw	a1,0(a5)
30001894:	06100813          	li	a6,97
30001898:	00098793          	mv	a5,s3
3000189c:	00090713          	mv	a4,s2
300018a0:	00100693          	li	a3,1
300018a4:	00a00613          	li	a2,10
300018a8:	fcc42503          	lw	a0,-52(s0)
300018ac:	cedff0ef          	jal	ra,30001598 <printi>
300018b0:	00050793          	mv	a5,a0
300018b4:	00f484b3          	add	s1,s1,a5
				continue;
300018b8:	1500006f          	j	30001a08 <print+0x2f4>
			}
			if( *format == 'x' ) {
300018bc:	fc842783          	lw	a5,-56(s0)
300018c0:	0007c703          	lbu	a4,0(a5)
300018c4:	07800793          	li	a5,120
300018c8:	02f71e63          	bne	a4,a5,30001904 <print+0x1f0>
				pc += printi (out, va_arg( args, int ), 16, 0, width, pad, 'a');
300018cc:	fc442783          	lw	a5,-60(s0)
300018d0:	00478713          	addi	a4,a5,4
300018d4:	fce42223          	sw	a4,-60(s0)
300018d8:	0007a583          	lw	a1,0(a5)
300018dc:	06100813          	li	a6,97
300018e0:	00098793          	mv	a5,s3
300018e4:	00090713          	mv	a4,s2
300018e8:	00000693          	li	a3,0
300018ec:	01000613          	li	a2,16
300018f0:	fcc42503          	lw	a0,-52(s0)
300018f4:	ca5ff0ef          	jal	ra,30001598 <printi>
300018f8:	00050793          	mv	a5,a0
300018fc:	00f484b3          	add	s1,s1,a5
				continue;
30001900:	1080006f          	j	30001a08 <print+0x2f4>
			}
			if( *format == 'X' ) {
30001904:	fc842783          	lw	a5,-56(s0)
30001908:	0007c703          	lbu	a4,0(a5)
3000190c:	05800793          	li	a5,88
30001910:	02f71e63          	bne	a4,a5,3000194c <print+0x238>
				pc += printi (out, va_arg( args, int ), 16, 0, width, pad, 'A');
30001914:	fc442783          	lw	a5,-60(s0)
30001918:	00478713          	addi	a4,a5,4
3000191c:	fce42223          	sw	a4,-60(s0)
30001920:	0007a583          	lw	a1,0(a5)
30001924:	04100813          	li	a6,65
30001928:	00098793          	mv	a5,s3
3000192c:	00090713          	mv	a4,s2
30001930:	00000693          	li	a3,0
30001934:	01000613          	li	a2,16
30001938:	fcc42503          	lw	a0,-52(s0)
3000193c:	c5dff0ef          	jal	ra,30001598 <printi>
30001940:	00050793          	mv	a5,a0
30001944:	00f484b3          	add	s1,s1,a5
				continue;
30001948:	0c00006f          	j	30001a08 <print+0x2f4>
			}
			if( *format == 'u' ) {
3000194c:	fc842783          	lw	a5,-56(s0)
30001950:	0007c703          	lbu	a4,0(a5)
30001954:	07500793          	li	a5,117
30001958:	02f71e63          	bne	a4,a5,30001994 <print+0x280>
				pc += printi (out, va_arg( args, int ), 10, 0, width, pad, 'a');
3000195c:	fc442783          	lw	a5,-60(s0)
30001960:	00478713          	addi	a4,a5,4
30001964:	fce42223          	sw	a4,-60(s0)
30001968:	0007a583          	lw	a1,0(a5)
3000196c:	06100813          	li	a6,97
30001970:	00098793          	mv	a5,s3
30001974:	00090713          	mv	a4,s2
30001978:	00000693          	li	a3,0
3000197c:	00a00613          	li	a2,10
30001980:	fcc42503          	lw	a0,-52(s0)
30001984:	c15ff0ef          	jal	ra,30001598 <printi>
30001988:	00050793          	mv	a5,a0
3000198c:	00f484b3          	add	s1,s1,a5
				continue;
30001990:	0780006f          	j	30001a08 <print+0x2f4>
			}
			if( *format == 'c' ) {
30001994:	fc842783          	lw	a5,-56(s0)
30001998:	0007c703          	lbu	a4,0(a5)
3000199c:	06300793          	li	a5,99
300019a0:	06f71463          	bne	a4,a5,30001a08 <print+0x2f4>
				/* char are converted to int then pushed on the stack */
				scr[0] = (char)va_arg( args, int );
300019a4:	fc442783          	lw	a5,-60(s0)
300019a8:	00478713          	addi	a4,a5,4
300019ac:	fce42223          	sw	a4,-60(s0)
300019b0:	0007a783          	lw	a5,0(a5)
300019b4:	0ff7f793          	zext.b	a5,a5
300019b8:	fcf40e23          	sb	a5,-36(s0)
				scr[1] = '\0';
300019bc:	fc040ea3          	sb	zero,-35(s0)
				pc += prints (out, scr, width, pad);
300019c0:	fdc40793          	addi	a5,s0,-36
300019c4:	00098693          	mv	a3,s3
300019c8:	00090613          	mv	a2,s2
300019cc:	00078593          	mv	a1,a5
300019d0:	fcc42503          	lw	a0,-52(s0)
300019d4:	a85ff0ef          	jal	ra,30001458 <prints>
300019d8:	00050793          	mv	a5,a0
300019dc:	00f484b3          	add	s1,s1,a5
				continue;
300019e0:	0280006f          	j	30001a08 <print+0x2f4>
			}
		}
		else {
		out:
300019e4:	00000013          	nop
300019e8:	0080006f          	j	300019f0 <print+0x2dc>
			if (*format == '%') goto out;
300019ec:	00000013          	nop
			printchar (out, *format);
300019f0:	fc842783          	lw	a5,-56(s0)
300019f4:	0007c783          	lbu	a5,0(a5)
300019f8:	00078593          	mv	a1,a5
300019fc:	fcc42503          	lw	a0,-52(s0)
30001a00:	9f1ff0ef          	jal	ra,300013f0 <printchar>
			++pc;
30001a04:	00148493          	addi	s1,s1,1
	for (; *format != 0; ++format) {
30001a08:	fc842783          	lw	a5,-56(s0)
30001a0c:	00178793          	addi	a5,a5,1
30001a10:	fcf42423          	sw	a5,-56(s0)
30001a14:	fc842783          	lw	a5,-56(s0)
30001a18:	0007c783          	lbu	a5,0(a5)
30001a1c:	d20794e3          	bnez	a5,30001744 <print+0x30>
30001a20:	0080006f          	j	30001a28 <print+0x314>
			if (*format == '\0') break;
30001a24:	00000013          	nop
		}
	}
	if (out) **out = '\0';
30001a28:	fcc42783          	lw	a5,-52(s0)
30001a2c:	00078863          	beqz	a5,30001a3c <print+0x328>
30001a30:	fcc42783          	lw	a5,-52(s0)
30001a34:	0007a783          	lw	a5,0(a5)
30001a38:	00078023          	sb	zero,0(a5)
	va_end( args );
	return pc;
30001a3c:	00048793          	mv	a5,s1
}
30001a40:	00078513          	mv	a0,a5
30001a44:	03c12083          	lw	ra,60(sp)
30001a48:	03812403          	lw	s0,56(sp)
30001a4c:	03412483          	lw	s1,52(sp)
30001a50:	03012903          	lw	s2,48(sp)
30001a54:	02c12983          	lw	s3,44(sp)
30001a58:	04010113          	addi	sp,sp,64
30001a5c:	00008067          	ret

30001a60 <printf>:

int printf(const char *format, ...)
{
30001a60:	fb010113          	addi	sp,sp,-80
30001a64:	02112623          	sw	ra,44(sp)
30001a68:	02812423          	sw	s0,40(sp)
30001a6c:	03010413          	addi	s0,sp,48
30001a70:	fca42e23          	sw	a0,-36(s0)
30001a74:	00b42223          	sw	a1,4(s0)
30001a78:	00c42423          	sw	a2,8(s0)
30001a7c:	00d42623          	sw	a3,12(s0)
30001a80:	00e42823          	sw	a4,16(s0)
30001a84:	00f42a23          	sw	a5,20(s0)
30001a88:	01042c23          	sw	a6,24(s0)
30001a8c:	01142e23          	sw	a7,28(s0)
        va_list args;
        
        va_start( args, format );
30001a90:	02040793          	addi	a5,s0,32
30001a94:	fcf42c23          	sw	a5,-40(s0)
30001a98:	fd842783          	lw	a5,-40(s0)
30001a9c:	fe478793          	addi	a5,a5,-28
30001aa0:	fef42623          	sw	a5,-20(s0)
        return print( 0, format, args);
30001aa4:	fec42783          	lw	a5,-20(s0)
30001aa8:	00078613          	mv	a2,a5
30001aac:	fdc42583          	lw	a1,-36(s0)
30001ab0:	00000513          	li	a0,0
30001ab4:	c61ff0ef          	jal	ra,30001714 <print>
30001ab8:	00050793          	mv	a5,a0
}
30001abc:	00078513          	mv	a0,a5
30001ac0:	02c12083          	lw	ra,44(sp)
30001ac4:	02812403          	lw	s0,40(sp)
30001ac8:	05010113          	addi	sp,sp,80
30001acc:	00008067          	ret

30001ad0 <uart_init>:
void uart_init()
{
30001ad0:	fe010113          	addi	sp,sp,-32
30001ad4:	00812e23          	sw	s0,28(sp)
30001ad8:	02010413          	addi	s0,sp,32
	UART_Typedef *uart = UART;
30001adc:	400007b7          	lui	a5,0x40000
30001ae0:	00478793          	addi	a5,a5,4 # 40000004 <_sp+0xff00004>
30001ae4:	fef42623          	sw	a5,-20(s0)
	uint32_t ctrl_data = 3;
30001ae8:	00300793          	li	a5,3
30001aec:	fef42423          	sw	a5,-24(s0)
	uint32_t divider = 0x15b;
30001af0:	15b00793          	li	a5,347
30001af4:	fef42223          	sw	a5,-28(s0)
	uart->CTRL 		= ctrl_data;
30001af8:	fec42783          	lw	a5,-20(s0)
30001afc:	fe842703          	lw	a4,-24(s0)
30001b00:	00e7a023          	sw	a4,0(a5)
	uart->BAUDDIV	= divider;
30001b04:	fec42783          	lw	a5,-20(s0)
30001b08:	fe442703          	lw	a4,-28(s0)
30001b0c:	00e7a223          	sw	a4,4(a5)
30001b10:	00000013          	nop
30001b14:	01c12403          	lw	s0,28(sp)
30001b18:	02010113          	addi	sp,sp,32
30001b1c:	00008067          	ret

30001b20 <timer_start>:
#include "timer.h"
void timer_start(int c)				//start timer,set time period c ms
{
30001b20:	fd010113          	addi	sp,sp,-48
30001b24:	02812623          	sw	s0,44(sp)
30001b28:	03010413          	addi	s0,sp,48
30001b2c:	fca42e23          	sw	a0,-36(s0)
	int t = 3000 * 50000;
30001b30:	08f0d7b7          	lui	a5,0x8f0d
30001b34:	18078793          	addi	a5,a5,384 # 8f0d180 <__stack_size+0x8f0c180>
30001b38:	fef42623          	sw	a5,-20(s0)
	*( volatile int * ) ( MTIMECMP )   = t;
30001b3c:	400007b7          	lui	a5,0x40000
30001b40:	04078793          	addi	a5,a5,64 # 40000040 <_sp+0xff00040>
30001b44:	fec42703          	lw	a4,-20(s0)
30001b48:	00e7a023          	sw	a4,0(a5)
	*( volatile int * ) ( MCOUNTSTAR ) = 1;
30001b4c:	400007b7          	lui	a5,0x40000
30001b50:	04478793          	addi	a5,a5,68 # 40000044 <_sp+0xff00044>
30001b54:	00100713          	li	a4,1
30001b58:	00e7a023          	sw	a4,0(a5)
}
30001b5c:	00000013          	nop
30001b60:	02c12403          	lw	s0,44(sp)
30001b64:	03010113          	addi	sp,sp,48
30001b68:	00008067          	ret

30001b6c <timer_close>:

void timer_close()
{
30001b6c:	ff010113          	addi	sp,sp,-16
30001b70:	00812623          	sw	s0,12(sp)
30001b74:	01010413          	addi	s0,sp,16
	*( volatile int * ) ( MCOUNTSTAR ) = 0;
30001b78:	400007b7          	lui	a5,0x40000
30001b7c:	04478793          	addi	a5,a5,68 # 40000044 <_sp+0xff00044>
30001b80:	0007a023          	sw	zero,0(a5)
}
30001b84:	00000013          	nop
30001b88:	00c12403          	lw	s0,12(sp)
30001b8c:	01010113          	addi	sp,sp,16
30001b90:	00008067          	ret

30001b94 <timer_init>:

void timer_init(){
30001b94:	ff010113          	addi	sp,sp,-16
30001b98:	00112623          	sw	ra,12(sp)
30001b9c:	00812423          	sw	s0,8(sp)
30001ba0:	01010413          	addi	s0,sp,16
	timer_start(1);
30001ba4:	00100513          	li	a0,1
30001ba8:	f79ff0ef          	jal	ra,30001b20 <timer_start>
}
30001bac:	00000013          	nop
30001bb0:	00c12083          	lw	ra,12(sp)
30001bb4:	00812403          	lw	s0,8(sp)
30001bb8:	01010113          	addi	sp,sp,16
30001bbc:	00008067          	ret

30001bc0 <timer_reset>:
void timer_reset(){
30001bc0:	ff010113          	addi	sp,sp,-16
30001bc4:	00112623          	sw	ra,12(sp)
30001bc8:	00812423          	sw	s0,8(sp)
30001bcc:	01010413          	addi	s0,sp,16
	timer_close();
30001bd0:	f9dff0ef          	jal	ra,30001b6c <timer_close>
	timer_start(1);
30001bd4:	00100513          	li	a0,1
30001bd8:	f49ff0ef          	jal	ra,30001b20 <timer_start>
}
30001bdc:	00000013          	nop
30001be0:	00c12083          	lw	ra,12(sp)
30001be4:	00812403          	lw	s0,8(sp)
30001be8:	01010113          	addi	sp,sp,16
30001bec:	00008067          	ret

30001bf0 <timer_handler>:

void timer_handler(){
30001bf0:	ff010113          	addi	sp,sp,-16
30001bf4:	00112623          	sw	ra,12(sp)
30001bf8:	00812423          	sw	s0,8(sp)
30001bfc:	01010413          	addi	s0,sp,16
	timer_reset();
30001c00:	fc1ff0ef          	jal	ra,30001bc0 <timer_reset>
	sche_thread(0,-1);
30001c04:	fff00593          	li	a1,-1
30001c08:	00000513          	li	a0,0
30001c0c:	739000ef          	jal	ra,30002b44 <sche_thread>
30001c10:	00000013          	nop
30001c14:	00c12083          	lw	ra,12(sp)
30001c18:	00812403          	lw	s0,8(sp)
30001c1c:	01010113          	addi	sp,sp,16
30001c20:	00008067          	ret

30001c24 <conv2d>:
    dst:CHW
    kernel_data:IOHW
    stripe=1
    no padding
*/
void conv2d(int res_size,float * res,float * dst,int in_channels,int out_channels,int kernel_size,float * kernel_data){
30001c24:	fa010113          	addi	sp,sp,-96
30001c28:	04112e23          	sw	ra,92(sp)
30001c2c:	04812c23          	sw	s0,88(sp)
30001c30:	04912a23          	sw	s1,84(sp)
30001c34:	05212823          	sw	s2,80(sp)
30001c38:	06010413          	addi	s0,sp,96
30001c3c:	faa42e23          	sw	a0,-68(s0)
30001c40:	fab42c23          	sw	a1,-72(s0)
30001c44:	fac42a23          	sw	a2,-76(s0)
30001c48:	fad42823          	sw	a3,-80(s0)
30001c4c:	fae42623          	sw	a4,-84(s0)
30001c50:	faf42423          	sw	a5,-88(s0)
30001c54:	fb042223          	sw	a6,-92(s0)
    int dst_size = res_size - 2*(kernel_size/2);
30001c58:	fa842783          	lw	a5,-88(s0)
30001c5c:	01f7d713          	srli	a4,a5,0x1f
30001c60:	00f707b3          	add	a5,a4,a5
30001c64:	4017d793          	srai	a5,a5,0x1
30001c68:	00179793          	slli	a5,a5,0x1
30001c6c:	fbc42703          	lw	a4,-68(s0)
30001c70:	40f707b3          	sub	a5,a4,a5
30001c74:	fcf42a23          	sw	a5,-44(s0)
    for(int oc=0;oc<out_channels;oc++){
30001c78:	fe042623          	sw	zero,-20(s0)
30001c7c:	1e40006f          	j	30001e60 <conv2d+0x23c>
        for(int ic=0;ic<in_channels;ic++){
30001c80:	fe042423          	sw	zero,-24(s0)
30001c84:	1c40006f          	j	30001e48 <conv2d+0x224>
            for(int ii=0;ii<dst_size;ii++){
30001c88:	fe042223          	sw	zero,-28(s0)
30001c8c:	1a40006f          	j	30001e30 <conv2d+0x20c>
                for(int jj=0;jj<dst_size;jj++){
30001c90:	fe042023          	sw	zero,-32(s0)
30001c94:	1840006f          	j	30001e18 <conv2d+0x1f4>
                    for(int ki=0;ki<kernel_size;ki++){
30001c98:	fc042e23          	sw	zero,-36(s0)
30001c9c:	1640006f          	j	30001e00 <conv2d+0x1dc>
                        for(int kj=0;kj<kernel_size;kj++){
30001ca0:	fc042c23          	sw	zero,-40(s0)
30001ca4:	1440006f          	j	30001de8 <conv2d+0x1c4>
                            int dst_index = oc*dst_size*dst_size+ii*dst_size+jj;
30001ca8:	fec42703          	lw	a4,-20(s0)
30001cac:	fd442783          	lw	a5,-44(s0)
30001cb0:	02f70733          	mul	a4,a4,a5
30001cb4:	fd442783          	lw	a5,-44(s0)
30001cb8:	02f70733          	mul	a4,a4,a5
30001cbc:	fe442683          	lw	a3,-28(s0)
30001cc0:	fd442783          	lw	a5,-44(s0)
30001cc4:	02f687b3          	mul	a5,a3,a5
30001cc8:	00f707b3          	add	a5,a4,a5
30001ccc:	fe042703          	lw	a4,-32(s0)
30001cd0:	00f707b3          	add	a5,a4,a5
30001cd4:	fcf42823          	sw	a5,-48(s0)
                            int kernel_index = oc*in_channels*kernel_size*kernel_size+ic*kernel_size*kernel_size+ki*kernel_size+kj;
30001cd8:	fec42703          	lw	a4,-20(s0)
30001cdc:	fb042783          	lw	a5,-80(s0)
30001ce0:	02f70733          	mul	a4,a4,a5
30001ce4:	fa842783          	lw	a5,-88(s0)
30001ce8:	02f70733          	mul	a4,a4,a5
30001cec:	fa842783          	lw	a5,-88(s0)
30001cf0:	02f70733          	mul	a4,a4,a5
30001cf4:	fe842683          	lw	a3,-24(s0)
30001cf8:	fa842783          	lw	a5,-88(s0)
30001cfc:	02f686b3          	mul	a3,a3,a5
30001d00:	fa842783          	lw	a5,-88(s0)
30001d04:	02f687b3          	mul	a5,a3,a5
30001d08:	00f70733          	add	a4,a4,a5
30001d0c:	fdc42683          	lw	a3,-36(s0)
30001d10:	fa842783          	lw	a5,-88(s0)
30001d14:	02f687b3          	mul	a5,a3,a5
30001d18:	00f707b3          	add	a5,a4,a5
30001d1c:	fd842703          	lw	a4,-40(s0)
30001d20:	00f707b3          	add	a5,a4,a5
30001d24:	fcf42623          	sw	a5,-52(s0)
                            int res_index = ic*res_size*res_size + (ki+ii)*res_size+kj+jj;
30001d28:	fe842703          	lw	a4,-24(s0)
30001d2c:	fbc42783          	lw	a5,-68(s0)
30001d30:	02f70733          	mul	a4,a4,a5
30001d34:	fbc42783          	lw	a5,-68(s0)
30001d38:	02f70733          	mul	a4,a4,a5
30001d3c:	fdc42683          	lw	a3,-36(s0)
30001d40:	fe442783          	lw	a5,-28(s0)
30001d44:	00f686b3          	add	a3,a3,a5
30001d48:	fbc42783          	lw	a5,-68(s0)
30001d4c:	02f687b3          	mul	a5,a3,a5
30001d50:	00f70733          	add	a4,a4,a5
30001d54:	fd842783          	lw	a5,-40(s0)
30001d58:	00f707b3          	add	a5,a4,a5
30001d5c:	fe042703          	lw	a4,-32(s0)
30001d60:	00f707b3          	add	a5,a4,a5
30001d64:	fcf42423          	sw	a5,-56(s0)
                            dst[dst_index]+=kernel_data[kernel_index]*res[res_index];
30001d68:	fd042783          	lw	a5,-48(s0)
30001d6c:	00279793          	slli	a5,a5,0x2
30001d70:	fb442703          	lw	a4,-76(s0)
30001d74:	00f707b3          	add	a5,a4,a5
30001d78:	0007a903          	lw	s2,0(a5)
30001d7c:	fcc42783          	lw	a5,-52(s0)
30001d80:	00279793          	slli	a5,a5,0x2
30001d84:	fa442703          	lw	a4,-92(s0)
30001d88:	00f707b3          	add	a5,a4,a5
30001d8c:	0007a683          	lw	a3,0(a5)
30001d90:	fc842783          	lw	a5,-56(s0)
30001d94:	00279793          	slli	a5,a5,0x2
30001d98:	fb842703          	lw	a4,-72(s0)
30001d9c:	00f707b3          	add	a5,a4,a5
30001da0:	0007a783          	lw	a5,0(a5)
30001da4:	00078593          	mv	a1,a5
30001da8:	00068513          	mv	a0,a3
30001dac:	2d9010ef          	jal	ra,30003884 <__mulsf3>
30001db0:	00050793          	mv	a5,a0
30001db4:	00078693          	mv	a3,a5
30001db8:	fd042783          	lw	a5,-48(s0)
30001dbc:	00279793          	slli	a5,a5,0x2
30001dc0:	fb442703          	lw	a4,-76(s0)
30001dc4:	00f704b3          	add	s1,a4,a5
30001dc8:	00068593          	mv	a1,a3
30001dcc:	00090513          	mv	a0,s2
30001dd0:	238010ef          	jal	ra,30003008 <__addsf3>
30001dd4:	00050793          	mv	a5,a0
30001dd8:	00f4a023          	sw	a5,0(s1)
                        for(int kj=0;kj<kernel_size;kj++){
30001ddc:	fd842783          	lw	a5,-40(s0)
30001de0:	00178793          	addi	a5,a5,1
30001de4:	fcf42c23          	sw	a5,-40(s0)
30001de8:	fd842703          	lw	a4,-40(s0)
30001dec:	fa842783          	lw	a5,-88(s0)
30001df0:	eaf74ce3          	blt	a4,a5,30001ca8 <conv2d+0x84>
                    for(int ki=0;ki<kernel_size;ki++){
30001df4:	fdc42783          	lw	a5,-36(s0)
30001df8:	00178793          	addi	a5,a5,1
30001dfc:	fcf42e23          	sw	a5,-36(s0)
30001e00:	fdc42703          	lw	a4,-36(s0)
30001e04:	fa842783          	lw	a5,-88(s0)
30001e08:	e8f74ce3          	blt	a4,a5,30001ca0 <conv2d+0x7c>
                for(int jj=0;jj<dst_size;jj++){
30001e0c:	fe042783          	lw	a5,-32(s0)
30001e10:	00178793          	addi	a5,a5,1
30001e14:	fef42023          	sw	a5,-32(s0)
30001e18:	fe042703          	lw	a4,-32(s0)
30001e1c:	fd442783          	lw	a5,-44(s0)
30001e20:	e6f74ce3          	blt	a4,a5,30001c98 <conv2d+0x74>
            for(int ii=0;ii<dst_size;ii++){
30001e24:	fe442783          	lw	a5,-28(s0)
30001e28:	00178793          	addi	a5,a5,1
30001e2c:	fef42223          	sw	a5,-28(s0)
30001e30:	fe442703          	lw	a4,-28(s0)
30001e34:	fd442783          	lw	a5,-44(s0)
30001e38:	e4f74ce3          	blt	a4,a5,30001c90 <conv2d+0x6c>
        for(int ic=0;ic<in_channels;ic++){
30001e3c:	fe842783          	lw	a5,-24(s0)
30001e40:	00178793          	addi	a5,a5,1
30001e44:	fef42423          	sw	a5,-24(s0)
30001e48:	fe842703          	lw	a4,-24(s0)
30001e4c:	fb042783          	lw	a5,-80(s0)
30001e50:	e2f74ce3          	blt	a4,a5,30001c88 <conv2d+0x64>
    for(int oc=0;oc<out_channels;oc++){
30001e54:	fec42783          	lw	a5,-20(s0)
30001e58:	00178793          	addi	a5,a5,1
30001e5c:	fef42623          	sw	a5,-20(s0)
30001e60:	fec42703          	lw	a4,-20(s0)
30001e64:	fac42783          	lw	a5,-84(s0)
30001e68:	e0f74ce3          	blt	a4,a5,30001c80 <conv2d+0x5c>
                }
            }
        }
    }
    // print_conv1_data(dst);
}
30001e6c:	00000013          	nop
30001e70:	00000013          	nop
30001e74:	05c12083          	lw	ra,92(sp)
30001e78:	05812403          	lw	s0,88(sp)
30001e7c:	05412483          	lw	s1,84(sp)
30001e80:	05012903          	lw	s2,80(sp)
30001e84:	06010113          	addi	sp,sp,96
30001e88:	00008067          	ret

30001e8c <maxPool2d>:


/*
    stripe = kernel_size
*/
void maxPool2d(int in_channels,int res_size,int kernel_size,float * res,float*dst){
30001e8c:	fa010113          	addi	sp,sp,-96
30001e90:	04112e23          	sw	ra,92(sp)
30001e94:	04812c23          	sw	s0,88(sp)
30001e98:	06010413          	addi	s0,sp,96
30001e9c:	faa42e23          	sw	a0,-68(s0)
30001ea0:	fab42c23          	sw	a1,-72(s0)
30001ea4:	fac42a23          	sw	a2,-76(s0)
30001ea8:	fad42823          	sw	a3,-80(s0)
30001eac:	fae42623          	sw	a4,-84(s0)
    int stripe = kernel_size;
30001eb0:	fb442783          	lw	a5,-76(s0)
30001eb4:	fcf42c23          	sw	a5,-40(s0)
    int dst_size = res_size / kernel_size;
30001eb8:	fb842703          	lw	a4,-72(s0)
30001ebc:	fb442783          	lw	a5,-76(s0)
30001ec0:	02f747b3          	div	a5,a4,a5
30001ec4:	fcf42a23          	sw	a5,-44(s0)
    for(int ic=0;ic<in_channels;ic++){
30001ec8:	fe042623          	sw	zero,-20(s0)
30001ecc:	18c0006f          	j	30002058 <maxPool2d+0x1cc>
        for(int i=0;i<dst_size;i++){
30001ed0:	fe042423          	sw	zero,-24(s0)
30001ed4:	16c0006f          	j	30002040 <maxPool2d+0x1b4>
            for(int j=0;j<dst_size;j++){
30001ed8:	fe042223          	sw	zero,-28(s0)
30001edc:	14c0006f          	j	30002028 <maxPool2d+0x19c>
                for(int ii=0;ii<kernel_size;ii++){
30001ee0:	fe042023          	sw	zero,-32(s0)
30001ee4:	12c0006f          	j	30002010 <maxPool2d+0x184>
                    for(int jj=0;jj<kernel_size;jj++){
30001ee8:	fc042e23          	sw	zero,-36(s0)
30001eec:	10c0006f          	j	30001ff8 <maxPool2d+0x16c>
                        int dst_index = ic*dst_size*dst_size+i*dst_size+j;
30001ef0:	fec42703          	lw	a4,-20(s0)
30001ef4:	fd442783          	lw	a5,-44(s0)
30001ef8:	02f70733          	mul	a4,a4,a5
30001efc:	fd442783          	lw	a5,-44(s0)
30001f00:	02f70733          	mul	a4,a4,a5
30001f04:	fe842683          	lw	a3,-24(s0)
30001f08:	fd442783          	lw	a5,-44(s0)
30001f0c:	02f687b3          	mul	a5,a3,a5
30001f10:	00f707b3          	add	a5,a4,a5
30001f14:	fe442703          	lw	a4,-28(s0)
30001f18:	00f707b3          	add	a5,a4,a5
30001f1c:	fcf42823          	sw	a5,-48(s0)
                        int res_index = ic*res_size*res_size+(i*stripe+ii)*res_size+j*stripe+jj;
30001f20:	fec42703          	lw	a4,-20(s0)
30001f24:	fb842783          	lw	a5,-72(s0)
30001f28:	02f70733          	mul	a4,a4,a5
30001f2c:	fb842783          	lw	a5,-72(s0)
30001f30:	02f70733          	mul	a4,a4,a5
30001f34:	fe842683          	lw	a3,-24(s0)
30001f38:	fd842783          	lw	a5,-40(s0)
30001f3c:	02f686b3          	mul	a3,a3,a5
30001f40:	fe042783          	lw	a5,-32(s0)
30001f44:	00f686b3          	add	a3,a3,a5
30001f48:	fb842783          	lw	a5,-72(s0)
30001f4c:	02f687b3          	mul	a5,a3,a5
30001f50:	00f70733          	add	a4,a4,a5
30001f54:	fe442683          	lw	a3,-28(s0)
30001f58:	fd842783          	lw	a5,-40(s0)
30001f5c:	02f687b3          	mul	a5,a3,a5
30001f60:	00f707b3          	add	a5,a4,a5
30001f64:	fdc42703          	lw	a4,-36(s0)
30001f68:	00f707b3          	add	a5,a4,a5
30001f6c:	fcf42623          	sw	a5,-52(s0)
                        dst[dst_index] = dst[dst_index] > res[res_index] ? dst[dst_index] : res[res_index];
30001f70:	fd042783          	lw	a5,-48(s0)
30001f74:	00279793          	slli	a5,a5,0x2
30001f78:	fac42703          	lw	a4,-84(s0)
30001f7c:	00f707b3          	add	a5,a4,a5
30001f80:	0007a683          	lw	a3,0(a5)
30001f84:	fcc42783          	lw	a5,-52(s0)
30001f88:	00279793          	slli	a5,a5,0x2
30001f8c:	fb042703          	lw	a4,-80(s0)
30001f90:	00f707b3          	add	a5,a4,a5
30001f94:	0007a783          	lw	a5,0(a5)
30001f98:	00078593          	mv	a1,a5
30001f9c:	00068513          	mv	a0,a3
30001fa0:	009010ef          	jal	ra,300037a8 <__gesf2>
30001fa4:	00050793          	mv	a5,a0
30001fa8:	00f05e63          	blez	a5,30001fc4 <maxPool2d+0x138>
30001fac:	fd042783          	lw	a5,-48(s0)
30001fb0:	00279793          	slli	a5,a5,0x2
30001fb4:	fac42703          	lw	a4,-84(s0)
30001fb8:	00f707b3          	add	a5,a4,a5
30001fbc:	0007a783          	lw	a5,0(a5)
30001fc0:	0180006f          	j	30001fd8 <maxPool2d+0x14c>
30001fc4:	fcc42783          	lw	a5,-52(s0)
30001fc8:	00279793          	slli	a5,a5,0x2
30001fcc:	fb042703          	lw	a4,-80(s0)
30001fd0:	00f707b3          	add	a5,a4,a5
30001fd4:	0007a783          	lw	a5,0(a5)
30001fd8:	fd042703          	lw	a4,-48(s0)
30001fdc:	00271713          	slli	a4,a4,0x2
30001fe0:	fac42683          	lw	a3,-84(s0)
30001fe4:	00e68733          	add	a4,a3,a4
30001fe8:	00f72023          	sw	a5,0(a4)
                    for(int jj=0;jj<kernel_size;jj++){
30001fec:	fdc42783          	lw	a5,-36(s0)
30001ff0:	00178793          	addi	a5,a5,1
30001ff4:	fcf42e23          	sw	a5,-36(s0)
30001ff8:	fdc42703          	lw	a4,-36(s0)
30001ffc:	fb442783          	lw	a5,-76(s0)
30002000:	eef748e3          	blt	a4,a5,30001ef0 <maxPool2d+0x64>
                for(int ii=0;ii<kernel_size;ii++){
30002004:	fe042783          	lw	a5,-32(s0)
30002008:	00178793          	addi	a5,a5,1
3000200c:	fef42023          	sw	a5,-32(s0)
30002010:	fe042703          	lw	a4,-32(s0)
30002014:	fb442783          	lw	a5,-76(s0)
30002018:	ecf748e3          	blt	a4,a5,30001ee8 <maxPool2d+0x5c>
            for(int j=0;j<dst_size;j++){
3000201c:	fe442783          	lw	a5,-28(s0)
30002020:	00178793          	addi	a5,a5,1
30002024:	fef42223          	sw	a5,-28(s0)
30002028:	fe442703          	lw	a4,-28(s0)
3000202c:	fd442783          	lw	a5,-44(s0)
30002030:	eaf748e3          	blt	a4,a5,30001ee0 <maxPool2d+0x54>
        for(int i=0;i<dst_size;i++){
30002034:	fe842783          	lw	a5,-24(s0)
30002038:	00178793          	addi	a5,a5,1
3000203c:	fef42423          	sw	a5,-24(s0)
30002040:	fe842703          	lw	a4,-24(s0)
30002044:	fd442783          	lw	a5,-44(s0)
30002048:	e8f748e3          	blt	a4,a5,30001ed8 <maxPool2d+0x4c>
    for(int ic=0;ic<in_channels;ic++){
3000204c:	fec42783          	lw	a5,-20(s0)
30002050:	00178793          	addi	a5,a5,1
30002054:	fef42623          	sw	a5,-20(s0)
30002058:	fec42703          	lw	a4,-20(s0)
3000205c:	fbc42783          	lw	a5,-68(s0)
30002060:	e6f748e3          	blt	a4,a5,30001ed0 <maxPool2d+0x44>
                }
            }
        }
    }

}
30002064:	00000013          	nop
30002068:	00000013          	nop
3000206c:	05c12083          	lw	ra,92(sp)
30002070:	05812403          	lw	s0,88(sp)
30002074:	06010113          	addi	sp,sp,96
30002078:	00008067          	ret

3000207c <relu>:


void relu(float * res,int in_channels,int res_size){
3000207c:	fd010113          	addi	sp,sp,-48
30002080:	02112623          	sw	ra,44(sp)
30002084:	02812423          	sw	s0,40(sp)
30002088:	03010413          	addi	s0,sp,48
3000208c:	fca42e23          	sw	a0,-36(s0)
30002090:	fcb42c23          	sw	a1,-40(s0)
30002094:	fcc42a23          	sw	a2,-44(s0)
    for(int i=0;i<in_channels*res_size*res_size;i++){
30002098:	fe042623          	sw	zero,-20(s0)
3000209c:	0680006f          	j	30002104 <relu+0x88>
        res[i] = res[i]>0?res[i]:0;
300020a0:	fec42783          	lw	a5,-20(s0)
300020a4:	00279793          	slli	a5,a5,0x2
300020a8:	fdc42703          	lw	a4,-36(s0)
300020ac:	00f707b3          	add	a5,a4,a5
300020b0:	0007a783          	lw	a5,0(a5)
300020b4:	00000593          	li	a1,0
300020b8:	00078513          	mv	a0,a5
300020bc:	6ec010ef          	jal	ra,300037a8 <__gesf2>
300020c0:	00050793          	mv	a5,a0
300020c4:	00f05e63          	blez	a5,300020e0 <relu+0x64>
300020c8:	fec42783          	lw	a5,-20(s0)
300020cc:	00279793          	slli	a5,a5,0x2
300020d0:	fdc42703          	lw	a4,-36(s0)
300020d4:	00f707b3          	add	a5,a4,a5
300020d8:	0007a783          	lw	a5,0(a5)
300020dc:	0080006f          	j	300020e4 <relu+0x68>
300020e0:	00000793          	li	a5,0
300020e4:	fec42703          	lw	a4,-20(s0)
300020e8:	00271713          	slli	a4,a4,0x2
300020ec:	fdc42683          	lw	a3,-36(s0)
300020f0:	00e68733          	add	a4,a3,a4
300020f4:	00f72023          	sw	a5,0(a4)
    for(int i=0;i<in_channels*res_size*res_size;i++){
300020f8:	fec42783          	lw	a5,-20(s0)
300020fc:	00178793          	addi	a5,a5,1
30002100:	fef42623          	sw	a5,-20(s0)
30002104:	fd842703          	lw	a4,-40(s0)
30002108:	fd442783          	lw	a5,-44(s0)
3000210c:	02f70733          	mul	a4,a4,a5
30002110:	fd442783          	lw	a5,-44(s0)
30002114:	02f707b3          	mul	a5,a4,a5
30002118:	fec42703          	lw	a4,-20(s0)
3000211c:	f8f742e3          	blt	a4,a5,300020a0 <relu+0x24>
    }
}
30002120:	00000013          	nop
30002124:	00000013          	nop
30002128:	02c12083          	lw	ra,44(sp)
3000212c:	02812403          	lw	s0,40(sp)
30002130:	03010113          	addi	sp,sp,48
30002134:	00008067          	ret

30002138 <Linear>:

void Linear(int in_features,int out_features,float *res,float *dst,float * params){
30002138:	fc010113          	addi	sp,sp,-64
3000213c:	02112e23          	sw	ra,60(sp)
30002140:	02812c23          	sw	s0,56(sp)
30002144:	02912a23          	sw	s1,52(sp)
30002148:	03212823          	sw	s2,48(sp)
3000214c:	04010413          	addi	s0,sp,64
30002150:	fca42e23          	sw	a0,-36(s0)
30002154:	fcb42c23          	sw	a1,-40(s0)
30002158:	fcc42a23          	sw	a2,-44(s0)
3000215c:	fcd42823          	sw	a3,-48(s0)
30002160:	fce42623          	sw	a4,-52(s0)
    for(int i=0;i<out_features;i++){
30002164:	fe042623          	sw	zero,-20(s0)
30002168:	0b40006f          	j	3000221c <Linear+0xe4>
        for(int j=0;j<in_features;j++){
3000216c:	fe042423          	sw	zero,-24(s0)
30002170:	0940006f          	j	30002204 <Linear+0xcc>
            dst[i] += res[j]*params[i*in_features+j];
30002174:	fec42783          	lw	a5,-20(s0)
30002178:	00279793          	slli	a5,a5,0x2
3000217c:	fd042703          	lw	a4,-48(s0)
30002180:	00f707b3          	add	a5,a4,a5
30002184:	0007a903          	lw	s2,0(a5)
30002188:	fe842783          	lw	a5,-24(s0)
3000218c:	00279793          	slli	a5,a5,0x2
30002190:	fd442703          	lw	a4,-44(s0)
30002194:	00f707b3          	add	a5,a4,a5
30002198:	0007a683          	lw	a3,0(a5)
3000219c:	fec42703          	lw	a4,-20(s0)
300021a0:	fdc42783          	lw	a5,-36(s0)
300021a4:	02f70733          	mul	a4,a4,a5
300021a8:	fe842783          	lw	a5,-24(s0)
300021ac:	00f707b3          	add	a5,a4,a5
300021b0:	00279793          	slli	a5,a5,0x2
300021b4:	fcc42703          	lw	a4,-52(s0)
300021b8:	00f707b3          	add	a5,a4,a5
300021bc:	0007a783          	lw	a5,0(a5)
300021c0:	00078593          	mv	a1,a5
300021c4:	00068513          	mv	a0,a3
300021c8:	6bc010ef          	jal	ra,30003884 <__mulsf3>
300021cc:	00050793          	mv	a5,a0
300021d0:	00078693          	mv	a3,a5
300021d4:	fec42783          	lw	a5,-20(s0)
300021d8:	00279793          	slli	a5,a5,0x2
300021dc:	fd042703          	lw	a4,-48(s0)
300021e0:	00f704b3          	add	s1,a4,a5
300021e4:	00068593          	mv	a1,a3
300021e8:	00090513          	mv	a0,s2
300021ec:	61d000ef          	jal	ra,30003008 <__addsf3>
300021f0:	00050793          	mv	a5,a0
300021f4:	00f4a023          	sw	a5,0(s1)
        for(int j=0;j<in_features;j++){
300021f8:	fe842783          	lw	a5,-24(s0)
300021fc:	00178793          	addi	a5,a5,1
30002200:	fef42423          	sw	a5,-24(s0)
30002204:	fe842703          	lw	a4,-24(s0)
30002208:	fdc42783          	lw	a5,-36(s0)
3000220c:	f6f744e3          	blt	a4,a5,30002174 <Linear+0x3c>
    for(int i=0;i<out_features;i++){
30002210:	fec42783          	lw	a5,-20(s0)
30002214:	00178793          	addi	a5,a5,1
30002218:	fef42623          	sw	a5,-20(s0)
3000221c:	fec42703          	lw	a4,-20(s0)
30002220:	fd842783          	lw	a5,-40(s0)
30002224:	f4f744e3          	blt	a4,a5,3000216c <Linear+0x34>
        }
    }
30002228:	00000013          	nop
3000222c:	00000013          	nop
30002230:	03c12083          	lw	ra,60(sp)
30002234:	03812403          	lw	s0,56(sp)
30002238:	03412483          	lw	s1,52(sp)
3000223c:	03012903          	lw	s2,48(sp)
30002240:	04010113          	addi	sp,sp,64
30002244:	00008067          	ret

30002248 <ReverseInt>:




int ReverseInt(int i)
{
30002248:	fd010113          	addi	sp,sp,-48
3000224c:	02812623          	sw	s0,44(sp)
30002250:	03010413          	addi	s0,sp,48
30002254:	fca42e23          	sw	a0,-36(s0)
	unsigned char ch1, ch2, ch3, ch4;
	ch1 = i & 255;
30002258:	fdc42783          	lw	a5,-36(s0)
3000225c:	fef407a3          	sb	a5,-17(s0)
	ch2 = (i >> 8) & 255;
30002260:	fdc42783          	lw	a5,-36(s0)
30002264:	4087d793          	srai	a5,a5,0x8
30002268:	fef40723          	sb	a5,-18(s0)
	ch3 = (i >> 16) & 255;
3000226c:	fdc42783          	lw	a5,-36(s0)
30002270:	4107d793          	srai	a5,a5,0x10
30002274:	fef406a3          	sb	a5,-19(s0)
	ch4 = (i >> 24) & 255;
30002278:	fdc42783          	lw	a5,-36(s0)
3000227c:	0187d793          	srli	a5,a5,0x18
30002280:	fef40623          	sb	a5,-20(s0)
	return((int)ch1 << 24) + ((int)ch2 << 16) + ((int)ch3 << 8) + ch4;
30002284:	fef44783          	lbu	a5,-17(s0)
30002288:	01879713          	slli	a4,a5,0x18
3000228c:	fee44783          	lbu	a5,-18(s0)
30002290:	01079793          	slli	a5,a5,0x10
30002294:	00f70733          	add	a4,a4,a5
30002298:	fed44783          	lbu	a5,-19(s0)
3000229c:	00879793          	slli	a5,a5,0x8
300022a0:	00f70733          	add	a4,a4,a5
300022a4:	fec44783          	lbu	a5,-20(s0)
300022a8:	00f707b3          	add	a5,a4,a5
}
300022ac:	00078513          	mv	a0,a5
300022b0:	02c12403          	lw	s0,44(sp)
300022b4:	03010113          	addi	sp,sp,48
300022b8:	00008067          	ret

300022bc <forward>:

void forward(char * weights,char * images){
300022bc:	f9010113          	addi	sp,sp,-112
300022c0:	06112623          	sw	ra,108(sp)
300022c4:	06812423          	sw	s0,104(sp)
300022c8:	07010413          	addi	s0,sp,112
300022cc:	f8a42e23          	sw	a0,-100(s0)
300022d0:	f8b42c23          	sw	a1,-104(s0)
    //读取图片文件头
    int magic_number = 0;
300022d4:	fa042e23          	sw	zero,-68(s0)
    int number_of_images = 0;
300022d8:	fa042c23          	sw	zero,-72(s0)
    int n_rows = 0;
300022dc:	fa042a23          	sw	zero,-76(s0)
    int n_cols = 0;
300022e0:	fa042823          	sw	zero,-80(s0)
    unsigned int images_data_index=0;
300022e4:	fa042623          	sw	zero,-84(s0)
    magic_number = *((int *)&images[images_data_index]);
300022e8:	f9842703          	lw	a4,-104(s0)
300022ec:	fac42783          	lw	a5,-84(s0)
300022f0:	00f707b3          	add	a5,a4,a5
300022f4:	0007a783          	lw	a5,0(a5)
300022f8:	faf42e23          	sw	a5,-68(s0)
    images_data_index+=4;
300022fc:	fac42783          	lw	a5,-84(s0)
30002300:	00478793          	addi	a5,a5,4
30002304:	faf42623          	sw	a5,-84(s0)
    number_of_images = *((int *)&images[images_data_index]);
30002308:	f9842703          	lw	a4,-104(s0)
3000230c:	fac42783          	lw	a5,-84(s0)
30002310:	00f707b3          	add	a5,a4,a5
30002314:	0007a783          	lw	a5,0(a5)
30002318:	faf42c23          	sw	a5,-72(s0)
    images_data_index+=4;
3000231c:	fac42783          	lw	a5,-84(s0)
30002320:	00478793          	addi	a5,a5,4
30002324:	faf42623          	sw	a5,-84(s0)
    n_rows = *((int *)&images[images_data_index]);
30002328:	f9842703          	lw	a4,-104(s0)
3000232c:	fac42783          	lw	a5,-84(s0)
30002330:	00f707b3          	add	a5,a4,a5
30002334:	0007a783          	lw	a5,0(a5)
30002338:	faf42a23          	sw	a5,-76(s0)
    images_data_index+=4;
3000233c:	fac42783          	lw	a5,-84(s0)
30002340:	00478793          	addi	a5,a5,4
30002344:	faf42623          	sw	a5,-84(s0)
    n_cols = *((int *)&images[images_data_index]);
30002348:	f9842703          	lw	a4,-104(s0)
3000234c:	fac42783          	lw	a5,-84(s0)
30002350:	00f707b3          	add	a5,a4,a5
30002354:	0007a783          	lw	a5,0(a5)
30002358:	faf42823          	sw	a5,-80(s0)
    images_data_index+=4;
3000235c:	fac42783          	lw	a5,-84(s0)
30002360:	00478793          	addi	a5,a5,4
30002364:	faf42623          	sw	a5,-84(s0)

    magic_number = ReverseInt(magic_number);
30002368:	fbc42503          	lw	a0,-68(s0)
3000236c:	eddff0ef          	jal	ra,30002248 <ReverseInt>
30002370:	faa42e23          	sw	a0,-68(s0)
    number_of_images = ReverseInt(number_of_images);
30002374:	fb842503          	lw	a0,-72(s0)
30002378:	ed1ff0ef          	jal	ra,30002248 <ReverseInt>
3000237c:	faa42c23          	sw	a0,-72(s0)
    n_rows = ReverseInt(n_rows);
30002380:	fb442503          	lw	a0,-76(s0)
30002384:	ec5ff0ef          	jal	ra,30002248 <ReverseInt>
30002388:	faa42a23          	sw	a0,-76(s0)
    n_cols = ReverseInt(n_cols);
3000238c:	fb042503          	lw	a0,-80(s0)
30002390:	eb9ff0ef          	jal	ra,30002248 <ReverseInt>
30002394:	faa42823          	sw	a0,-80(s0)
    printf("magic_number=%d,number of images=%d,image rows=%d,image cols=%d\n",magic_number,number_of_images,n_rows,n_cols);
30002398:	fb042703          	lw	a4,-80(s0)
3000239c:	fb442683          	lw	a3,-76(s0)
300023a0:	fb842603          	lw	a2,-72(s0)
300023a4:	fbc42583          	lw	a1,-68(s0)
300023a8:	300077b7          	lui	a5,0x30007
300023ac:	00878513          	addi	a0,a5,8 # 30007008 <_data+0x8>
300023b0:	eb0ff0ef          	jal	ra,30001a60 <printf>

    //读取权重文件头
    unsigned int conv_weight_size=0,fc_weight_size=0,weight_off;
300023b4:	fa042423          	sw	zero,-88(s0)
300023b8:	fa042223          	sw	zero,-92(s0)
    conv_weight_size = *((unsigned int *)weights);
300023bc:	f9c42783          	lw	a5,-100(s0)
300023c0:	0007a783          	lw	a5,0(a5)
300023c4:	faf42423          	sw	a5,-88(s0)
    fc_weight_size = *((unsigned int *)&weights[conv_weight_size+4]);
300023c8:	fa842783          	lw	a5,-88(s0)
300023cc:	00478793          	addi	a5,a5,4
300023d0:	f9c42703          	lw	a4,-100(s0)
300023d4:	00f707b3          	add	a5,a4,a5
300023d8:	0007a783          	lw	a5,0(a5)
300023dc:	faf42223          	sw	a5,-92(s0)
    printf("conv weight size = %u,fc_weight_size=%u\n",conv_weight_size,fc_weight_size);
300023e0:	fa442603          	lw	a2,-92(s0)
300023e4:	fa842583          	lw	a1,-88(s0)
300023e8:	300077b7          	lui	a5,0x30007
300023ec:	04c78513          	addi	a0,a5,76 # 3000704c <_data+0x4c>
300023f0:	e70ff0ef          	jal	ra,30001a60 <printf>

    weight_off=4;
300023f4:	00400793          	li	a5,4
300023f8:	fef42623          	sw	a5,-20(s0)
    for(int i=0;i<250;i++){
300023fc:	fe042423          	sw	zero,-24(s0)
30002400:	0640006f          	j	30002464 <forward+0x1a8>
        conv_weight[i] = *((int *)&weights[weight_off]) * 1.0;
30002404:	f9c42703          	lw	a4,-100(s0)
30002408:	fec42783          	lw	a5,-20(s0)
3000240c:	00f707b3          	add	a5,a4,a5
30002410:	0007a783          	lw	a5,0(a5)
30002414:	00078513          	mv	a0,a5
30002418:	349000ef          	jal	ra,30002f60 <__floatsidf>
3000241c:	00050713          	mv	a4,a0
30002420:	00058793          	mv	a5,a1
30002424:	00070513          	mv	a0,a4
30002428:	00078593          	mv	a1,a5
3000242c:	151010ef          	jal	ra,30003d7c <__truncdfsf2>
30002430:	00050693          	mv	a3,a0
30002434:	300087b7          	lui	a5,0x30008
30002438:	78c78713          	addi	a4,a5,1932 # 3000878c <conv_weight>
3000243c:	fe842783          	lw	a5,-24(s0)
30002440:	00279793          	slli	a5,a5,0x2
30002444:	00f707b3          	add	a5,a4,a5
30002448:	00d7a023          	sw	a3,0(a5)
        weight_off+=4;
3000244c:	fec42783          	lw	a5,-20(s0)
30002450:	00478793          	addi	a5,a5,4
30002454:	fef42623          	sw	a5,-20(s0)
    for(int i=0;i<250;i++){
30002458:	fe842783          	lw	a5,-24(s0)
3000245c:	00178793          	addi	a5,a5,1
30002460:	fef42423          	sw	a5,-24(s0)
30002464:	fe842703          	lw	a4,-24(s0)
30002468:	0f900793          	li	a5,249
3000246c:	f8e7dce3          	bge	a5,a4,30002404 <forward+0x148>
    }
    weight_off+=4;
30002470:	fec42783          	lw	a5,-20(s0)
30002474:	00478793          	addi	a5,a5,4
30002478:	fef42623          	sw	a5,-20(s0)
    for(int i=0;i<400;i++){
3000247c:	fe042223          	sw	zero,-28(s0)
30002480:	0640006f          	j	300024e4 <forward+0x228>
        fc_weight[i] = *((int *)&weights[weight_off]) * 1.0;
30002484:	f9c42703          	lw	a4,-100(s0)
30002488:	fec42783          	lw	a5,-20(s0)
3000248c:	00f707b3          	add	a5,a4,a5
30002490:	0007a783          	lw	a5,0(a5)
30002494:	00078513          	mv	a0,a5
30002498:	2c9000ef          	jal	ra,30002f60 <__floatsidf>
3000249c:	00050713          	mv	a4,a0
300024a0:	00058793          	mv	a5,a1
300024a4:	00070513          	mv	a0,a4
300024a8:	00078593          	mv	a1,a5
300024ac:	0d1010ef          	jal	ra,30003d7c <__truncdfsf2>
300024b0:	00050693          	mv	a3,a0
300024b4:	300097b7          	lui	a5,0x30009
300024b8:	b7478713          	addi	a4,a5,-1164 # 30008b74 <fc_weight>
300024bc:	fe442783          	lw	a5,-28(s0)
300024c0:	00279793          	slli	a5,a5,0x2
300024c4:	00f707b3          	add	a5,a4,a5
300024c8:	00d7a023          	sw	a3,0(a5)
        weight_off+=4;
300024cc:	fec42783          	lw	a5,-20(s0)
300024d0:	00478793          	addi	a5,a5,4
300024d4:	fef42623          	sw	a5,-20(s0)
    for(int i=0;i<400;i++){
300024d8:	fe442783          	lw	a5,-28(s0)
300024dc:	00178793          	addi	a5,a5,1
300024e0:	fef42223          	sw	a5,-28(s0)
300024e4:	fe442703          	lw	a4,-28(s0)
300024e8:	18f00793          	li	a5,399
300024ec:	f8e7dce3          	bge	a5,a4,30002484 <forward+0x1c8>
    }


    for(int i=0;i<number_of_images;i++){
300024f0:	fe042023          	sw	zero,-32(s0)
300024f4:	3500006f          	j	30002844 <forward+0x588>
        unsigned char *res = &images[images_data_index+i*28*28];
300024f8:	fe042703          	lw	a4,-32(s0)
300024fc:	31000793          	li	a5,784
30002500:	02f707b3          	mul	a5,a4,a5
30002504:	00078713          	mv	a4,a5
30002508:	fac42783          	lw	a5,-84(s0)
3000250c:	00f707b3          	add	a5,a4,a5
30002510:	f9842703          	lw	a4,-104(s0)
30002514:	00f707b3          	add	a5,a4,a5
30002518:	faf42023          	sw	a5,-96(s0)
        for(int i=0;i<n_cols*n_rows;i++){
3000251c:	fc042e23          	sw	zero,-36(s0)
30002520:	0840006f          	j	300025a4 <forward+0x2e8>
            if(i%n_cols==0){
30002524:	fdc42703          	lw	a4,-36(s0)
30002528:	fb042783          	lw	a5,-80(s0)
3000252c:	02f767b3          	rem	a5,a4,a5
30002530:	00079663          	bnez	a5,3000253c <forward+0x280>
                printf("\n");
30002534:	00a00513          	li	a0,10
30002538:	365010ef          	jal	ra,3000409c <putchar>
            }
            if(res[i]){
3000253c:	fdc42783          	lw	a5,-36(s0)
30002540:	fa042703          	lw	a4,-96(s0)
30002544:	00f707b3          	add	a5,a4,a5
30002548:	0007c783          	lbu	a5,0(a5)
3000254c:	00078863          	beqz	a5,3000255c <forward+0x2a0>
                printf(" ");
30002550:	02000513          	li	a0,32
30002554:	349010ef          	jal	ra,3000409c <putchar>
30002558:	00c0006f          	j	30002564 <forward+0x2a8>
            }
            else{
                printf("*");
3000255c:	02a00513          	li	a0,42
30002560:	33d010ef          	jal	ra,3000409c <putchar>
            }
            conv_res[i] = (float)res[i];
30002564:	fdc42783          	lw	a5,-36(s0)
30002568:	fa042703          	lw	a4,-96(s0)
3000256c:	00f707b3          	add	a5,a4,a5
30002570:	0007c783          	lbu	a5,0(a5)
30002574:	00078513          	mv	a0,a5
30002578:	640010ef          	jal	ra,30003bb8 <__floatunsisf>
3000257c:	00050693          	mv	a3,a0
30002580:	300087b7          	lui	a5,0x30008
30002584:	b4c78713          	addi	a4,a5,-1204 # 30007b4c <conv_res>
30002588:	fdc42783          	lw	a5,-36(s0)
3000258c:	00279793          	slli	a5,a5,0x2
30002590:	00f707b3          	add	a5,a4,a5
30002594:	00d7a023          	sw	a3,0(a5)
        for(int i=0;i<n_cols*n_rows;i++){
30002598:	fdc42783          	lw	a5,-36(s0)
3000259c:	00178793          	addi	a5,a5,1
300025a0:	fcf42e23          	sw	a5,-36(s0)
300025a4:	fb042703          	lw	a4,-80(s0)
300025a8:	fb442783          	lw	a5,-76(s0)
300025ac:	02f707b3          	mul	a5,a4,a5
300025b0:	fdc42703          	lw	a4,-36(s0)
300025b4:	f6f748e3          	blt	a4,a5,30002524 <forward+0x268>
        }
        printf("\n");
300025b8:	00a00513          	li	a0,10
300025bc:	2e1010ef          	jal	ra,3000409c <putchar>
        for(int j=0;j<10*24*24;j++){
300025c0:	fc042c23          	sw	zero,-40(s0)
300025c4:	02c0006f          	j	300025f0 <forward+0x334>
            conv1_dst[j]=0;
300025c8:	300097b7          	lui	a5,0x30009
300025cc:	1b478713          	addi	a4,a5,436 # 300091b4 <conv1_dst>
300025d0:	fd842783          	lw	a5,-40(s0)
300025d4:	00279793          	slli	a5,a5,0x2
300025d8:	00f707b3          	add	a5,a4,a5
300025dc:	00000713          	li	a4,0
300025e0:	00e7a023          	sw	a4,0(a5)
        for(int j=0;j<10*24*24;j++){
300025e4:	fd842783          	lw	a5,-40(s0)
300025e8:	00178793          	addi	a5,a5,1
300025ec:	fcf42c23          	sw	a5,-40(s0)
300025f0:	fd842703          	lw	a4,-40(s0)
300025f4:	000017b7          	lui	a5,0x1
300025f8:	67f78793          	addi	a5,a5,1663 # 167f <__stack_size+0x67f>
300025fc:	fce7d6e3          	bge	a5,a4,300025c8 <forward+0x30c>
        }
        conv2d(28,conv_res,conv1_dst,1,10,5,conv_weight);
30002600:	300087b7          	lui	a5,0x30008
30002604:	78c78813          	addi	a6,a5,1932 # 3000878c <conv_weight>
30002608:	00500793          	li	a5,5
3000260c:	00a00713          	li	a4,10
30002610:	00100693          	li	a3,1
30002614:	30009637          	lui	a2,0x30009
30002618:	1b460613          	addi	a2,a2,436 # 300091b4 <conv1_dst>
3000261c:	300085b7          	lui	a1,0x30008
30002620:	b4c58593          	addi	a1,a1,-1204 # 30007b4c <conv_res>
30002624:	01c00513          	li	a0,28
30002628:	dfcff0ef          	jal	ra,30001c24 <conv2d>

        for(int j=0;j<40;j++){
3000262c:	fc042a23          	sw	zero,-44(s0)
30002630:	02c0006f          	j	3000265c <forward+0x3a0>
            mp1_dst[j]=0;
30002634:	3000f7b7          	lui	a5,0x3000f
30002638:	bb478713          	addi	a4,a5,-1100 # 3000ebb4 <mp1_dst>
3000263c:	fd442783          	lw	a5,-44(s0)
30002640:	00279793          	slli	a5,a5,0x2
30002644:	00f707b3          	add	a5,a4,a5
30002648:	00000713          	li	a4,0
3000264c:	00e7a023          	sw	a4,0(a5)
        for(int j=0;j<40;j++){
30002650:	fd442783          	lw	a5,-44(s0)
30002654:	00178793          	addi	a5,a5,1
30002658:	fcf42a23          	sw	a5,-44(s0)
3000265c:	fd442703          	lw	a4,-44(s0)
30002660:	02700793          	li	a5,39
30002664:	fce7d8e3          	bge	a5,a4,30002634 <forward+0x378>
        }
        maxPool2d(10,24,12,conv1_dst,(float *)mp1_dst);;
30002668:	3000f7b7          	lui	a5,0x3000f
3000266c:	bb478713          	addi	a4,a5,-1100 # 3000ebb4 <mp1_dst>
30002670:	300097b7          	lui	a5,0x30009
30002674:	1b478693          	addi	a3,a5,436 # 300091b4 <conv1_dst>
30002678:	00c00613          	li	a2,12
3000267c:	01800593          	li	a1,24
30002680:	00a00513          	li	a0,10
30002684:	809ff0ef          	jal	ra,30001e8c <maxPool2d>
        relu((float*)mp1_dst,10,2);
30002688:	00200613          	li	a2,2
3000268c:	00a00593          	li	a1,10
30002690:	3000f7b7          	lui	a5,0x3000f
30002694:	bb478513          	addi	a0,a5,-1100 # 3000ebb4 <mp1_dst>
30002698:	9e5ff0ef          	jal	ra,3000207c <relu>
        for(int i=0;i<10;i++){
3000269c:	fc042823          	sw	zero,-48(s0)
300026a0:	02c0006f          	j	300026cc <forward+0x410>
            fc3_dst[i]=0;
300026a4:	3000f7b7          	lui	a5,0x3000f
300026a8:	c5478713          	addi	a4,a5,-940 # 3000ec54 <fc3_dst>
300026ac:	fd042783          	lw	a5,-48(s0)
300026b0:	00279793          	slli	a5,a5,0x2
300026b4:	00f707b3          	add	a5,a4,a5
300026b8:	00000713          	li	a4,0
300026bc:	00e7a023          	sw	a4,0(a5)
        for(int i=0;i<10;i++){
300026c0:	fd042783          	lw	a5,-48(s0)
300026c4:	00178793          	addi	a5,a5,1
300026c8:	fcf42823          	sw	a5,-48(s0)
300026cc:	fd042703          	lw	a4,-48(s0)
300026d0:	00900793          	li	a5,9
300026d4:	fce7d8e3          	bge	a5,a4,300026a4 <forward+0x3e8>
        }
        Linear(40,10,mp1_dst,(float*)fc3_dst,fc_weight);
300026d8:	300097b7          	lui	a5,0x30009
300026dc:	b7478713          	addi	a4,a5,-1164 # 30008b74 <fc_weight>
300026e0:	3000f7b7          	lui	a5,0x3000f
300026e4:	c5478693          	addi	a3,a5,-940 # 3000ec54 <fc3_dst>
300026e8:	3000f7b7          	lui	a5,0x3000f
300026ec:	bb478613          	addi	a2,a5,-1100 # 3000ebb4 <mp1_dst>
300026f0:	00a00593          	li	a1,10
300026f4:	02800513          	li	a0,40
300026f8:	a41ff0ef          	jal	ra,30002138 <Linear>
        float acc_sum=0;
300026fc:	00000793          	li	a5,0
30002700:	fcf42623          	sw	a5,-52(s0)
        for(int i=0;i<10;i++){
30002704:	fc042423          	sw	zero,-56(s0)
30002708:	0680006f          	j	30002770 <forward+0x4b4>
            if(fc3_dst[i]>0){
3000270c:	3000f7b7          	lui	a5,0x3000f
30002710:	c5478713          	addi	a4,a5,-940 # 3000ec54 <fc3_dst>
30002714:	fc842783          	lw	a5,-56(s0)
30002718:	00279793          	slli	a5,a5,0x2
3000271c:	00f707b3          	add	a5,a4,a5
30002720:	0007a783          	lw	a5,0(a5)
30002724:	00000593          	li	a1,0
30002728:	00078513          	mv	a0,a5
3000272c:	07c010ef          	jal	ra,300037a8 <__gesf2>
30002730:	00050793          	mv	a5,a0
30002734:	02f05863          	blez	a5,30002764 <forward+0x4a8>
                acc_sum+=fc3_dst[i];
30002738:	3000f7b7          	lui	a5,0x3000f
3000273c:	c5478713          	addi	a4,a5,-940 # 3000ec54 <fc3_dst>
30002740:	fc842783          	lw	a5,-56(s0)
30002744:	00279793          	slli	a5,a5,0x2
30002748:	00f707b3          	add	a5,a4,a5
3000274c:	0007a783          	lw	a5,0(a5)
30002750:	00078593          	mv	a1,a5
30002754:	fcc42503          	lw	a0,-52(s0)
30002758:	0b1000ef          	jal	ra,30003008 <__addsf3>
3000275c:	00050793          	mv	a5,a0
30002760:	fcf42623          	sw	a5,-52(s0)
        for(int i=0;i<10;i++){
30002764:	fc842783          	lw	a5,-56(s0)
30002768:	00178793          	addi	a5,a5,1
3000276c:	fcf42423          	sw	a5,-56(s0)
30002770:	fc842703          	lw	a4,-56(s0)
30002774:	00900793          	li	a5,9
30002778:	f8e7dae3          	bge	a5,a4,3000270c <forward+0x450>
            }
        }
        for(int i=0;i<10;i++){
3000277c:	fc042223          	sw	zero,-60(s0)
30002780:	0ac0006f          	j	3000282c <forward+0x570>
            float p=0;
30002784:	00000793          	li	a5,0
30002788:	fcf42023          	sw	a5,-64(s0)
            if(fc3_dst[i]>0)
3000278c:	3000f7b7          	lui	a5,0x3000f
30002790:	c5478713          	addi	a4,a5,-940 # 3000ec54 <fc3_dst>
30002794:	fc442783          	lw	a5,-60(s0)
30002798:	00279793          	slli	a5,a5,0x2
3000279c:	00f707b3          	add	a5,a4,a5
300027a0:	0007a783          	lw	a5,0(a5)
300027a4:	00000593          	li	a1,0
300027a8:	00078513          	mv	a0,a5
300027ac:	7fd000ef          	jal	ra,300037a8 <__gesf2>
300027b0:	00050793          	mv	a5,a0
300027b4:	02f05863          	blez	a5,300027e4 <forward+0x528>
                p = fc3_dst[i]/acc_sum;
300027b8:	3000f7b7          	lui	a5,0x3000f
300027bc:	c5478713          	addi	a4,a5,-940 # 3000ec54 <fc3_dst>
300027c0:	fc442783          	lw	a5,-60(s0)
300027c4:	00279793          	slli	a5,a5,0x2
300027c8:	00f707b3          	add	a5,a4,a5
300027cc:	0007a783          	lw	a5,0(a5)
300027d0:	fcc42583          	lw	a1,-52(s0)
300027d4:	00078513          	mv	a0,a5
300027d8:	4a1000ef          	jal	ra,30003478 <__divsf3>
300027dc:	00050793          	mv	a5,a0
300027e0:	fcf42023          	sw	a5,-64(s0)
            printf("probability of number %d is %.2f%\n",i,p*100);
300027e4:	300077b7          	lui	a5,0x30007
300027e8:	09c7a583          	lw	a1,156(a5) # 3000709c <_data+0x9c>
300027ec:	fc042503          	lw	a0,-64(s0)
300027f0:	094010ef          	jal	ra,30003884 <__mulsf3>
300027f4:	00050793          	mv	a5,a0
300027f8:	00078513          	mv	a0,a5
300027fc:	4a4010ef          	jal	ra,30003ca0 <__extendsfdf2>
30002800:	00050713          	mv	a4,a0
30002804:	00058793          	mv	a5,a1
30002808:	00070613          	mv	a2,a4
3000280c:	00078693          	mv	a3,a5
30002810:	fc442583          	lw	a1,-60(s0)
30002814:	300077b7          	lui	a5,0x30007
30002818:	07878513          	addi	a0,a5,120 # 30007078 <_data+0x78>
3000281c:	a44ff0ef          	jal	ra,30001a60 <printf>
        for(int i=0;i<10;i++){
30002820:	fc442783          	lw	a5,-60(s0)
30002824:	00178793          	addi	a5,a5,1
30002828:	fcf42223          	sw	a5,-60(s0)
3000282c:	fc442703          	lw	a4,-60(s0)
30002830:	00900793          	li	a5,9
30002834:	f4e7d8e3          	bge	a5,a4,30002784 <forward+0x4c8>
    for(int i=0;i<number_of_images;i++){
30002838:	fe042783          	lw	a5,-32(s0)
3000283c:	00178793          	addi	a5,a5,1
30002840:	fef42023          	sw	a5,-32(s0)
30002844:	fe042703          	lw	a4,-32(s0)
30002848:	fb842783          	lw	a5,-72(s0)
3000284c:	caf746e3          	blt	a4,a5,300024f8 <forward+0x23c>
        }
    }
}
30002850:	00000013          	nop
30002854:	00000013          	nop
30002858:	06c12083          	lw	ra,108(sp)
3000285c:	06812403          	lw	s0,104(sp)
30002860:	07010113          	addi	sp,sp,112
30002864:	00008067          	ret

30002868 <w_mscratch>:
	return x;
}

/* Machine Scratch register, for early trap handler */
static inline void w_mscratch(reg_t x)
{
30002868:	fe010113          	addi	sp,sp,-32
3000286c:	00812e23          	sw	s0,28(sp)
30002870:	02010413          	addi	s0,sp,32
30002874:	fea42623          	sw	a0,-20(s0)
	asm volatile("csrw mscratch, %0" : : "r" (x));
30002878:	fec42783          	lw	a5,-20(s0)
3000287c:	34079073          	csrw	mscratch,a5
}
30002880:	00000013          	nop
30002884:	01c12403          	lw	s0,28(sp)
30002888:	02010113          	addi	sp,sp,32
3000288c:	00008067          	ret

30002890 <r_mscratch>:

static inline reg_t r_mscratch()
{
30002890:	fe010113          	addi	sp,sp,-32
30002894:	00812e23          	sw	s0,28(sp)
30002898:	02010413          	addi	s0,sp,32
	reg_t x;
	asm volatile("csrr %0, mscratch" : "=r" (x) );
3000289c:	340027f3          	csrr	a5,mscratch
300028a0:	fef42623          	sw	a5,-20(s0)
	return x;
300028a4:	fec42783          	lw	a5,-20(s0)
}
300028a8:	00078513          	mv	a0,a5
300028ac:	01c12403          	lw	s0,28(sp)
300028b0:	02010113          	addi	sp,sp,32
300028b4:	00008067          	ret

300028b8 <thread_init>:

struct TCB * head, *tail;
struct TCB _head,_tail;


void thread_init(){
300028b8:	ff010113          	addi	sp,sp,-16
300028bc:	00112623          	sw	ra,12(sp)
300028c0:	00812423          	sw	s0,8(sp)
300028c4:	01010413          	addi	s0,sp,16
    thread_tcb[cur_thread_num].sp=(reg_t)&thread_stack[cur_thread_num][stack_size-1];
300028c8:	8141a783          	lw	a5,-2028(gp) # 30007b2c <cur_thread_num>
300028cc:	00b79793          	slli	a5,a5,0xb
300028d0:	7ff78713          	addi	a4,a5,2047
300028d4:	300107b7          	lui	a5,0x30010
300028d8:	efc78793          	addi	a5,a5,-260 # 3000fefc <thread_stack>
300028dc:	00f70733          	add	a4,a4,a5
300028e0:	8141a683          	lw	a3,-2028(gp) # 30007b2c <cur_thread_num>
300028e4:	00070613          	mv	a2,a4
300028e8:	3000f7b7          	lui	a5,0x3000f
300028ec:	c7c78713          	addi	a4,a5,-900 # 3000ec7c <thread_tcb>
300028f0:	12800793          	li	a5,296
300028f4:	02f687b3          	mul	a5,a3,a5
300028f8:	00f707b3          	add	a5,a4,a5
300028fc:	00c7a223          	sw	a2,4(a5)
    w_mscratch((reg_t)&thread_tcb[cur_thread_num]);
30002900:	8141a703          	lw	a4,-2028(gp) # 30007b2c <cur_thread_num>
30002904:	12800793          	li	a5,296
30002908:	02f70733          	mul	a4,a4,a5
3000290c:	3000f7b7          	lui	a5,0x3000f
30002910:	c7c78793          	addi	a5,a5,-900 # 3000ec7c <thread_tcb>
30002914:	00f707b3          	add	a5,a4,a5
30002918:	00078513          	mv	a0,a5
3000291c:	f4dff0ef          	jal	ra,30002868 <w_mscratch>
    thread_tcb[cur_thread_num].thread_id = cur_thread_num;
30002920:	8141a603          	lw	a2,-2028(gp) # 30007b2c <cur_thread_num>
30002924:	8141a703          	lw	a4,-2028(gp) # 30007b2c <cur_thread_num>
30002928:	3000f7b7          	lui	a5,0x3000f
3000292c:	c7c78693          	addi	a3,a5,-900 # 3000ec7c <thread_tcb>
30002930:	12800793          	li	a5,296
30002934:	02f607b3          	mul	a5,a2,a5
30002938:	00f687b3          	add	a5,a3,a5
3000293c:	12e7a023          	sw	a4,288(a5)
    thread_tcb[cur_thread_num].count=1;
30002940:	8141a683          	lw	a3,-2028(gp) # 30007b2c <cur_thread_num>
30002944:	3000f7b7          	lui	a5,0x3000f
30002948:	c7c78713          	addi	a4,a5,-900 # 3000ec7c <thread_tcb>
3000294c:	12800793          	li	a5,296
30002950:	02f687b3          	mul	a5,a3,a5
30002954:	00f707b3          	add	a5,a4,a5
30002958:	00100713          	li	a4,1
3000295c:	12e7a223          	sw	a4,292(a5)
        #ifdef QEMU
            uart_puts("main tcb's addr is ");
            uart_put_reg((reg_t)&thread_tcb[cur_thread_num]);
        #endif
    #endif
    cur_thread_num++;
30002960:	8141a783          	lw	a5,-2028(gp) # 30007b2c <cur_thread_num>
30002964:	00178713          	addi	a4,a5,1
30002968:	80e1aa23          	sw	a4,-2028(gp) # 30007b2c <cur_thread_num>
    head = &_head;
3000296c:	30018737          	lui	a4,0x30018
30002970:	efc70713          	addi	a4,a4,-260 # 30017efc <_head>
30002974:	80e1ac23          	sw	a4,-2024(gp) # 30007b30 <head>
    tail = &_tail;
30002978:	30018737          	lui	a4,0x30018
3000297c:	02470713          	addi	a4,a4,36 # 30018024 <_tail>
30002980:	80e1ae23          	sw	a4,-2020(gp) # 30007b34 <tail>
    head->next = tail;
30002984:	8181a783          	lw	a5,-2024(gp) # 30007b30 <head>
30002988:	81c1a703          	lw	a4,-2020(gp) # 30007b34 <tail>
3000298c:	10e7ae23          	sw	a4,284(a5)
    tail->pre = head;
30002990:	81c1a783          	lw	a5,-2020(gp) # 30007b34 <tail>
30002994:	8181a703          	lw	a4,-2024(gp) # 30007b30 <head>
30002998:	10e7ac23          	sw	a4,280(a5)
    
    return;
3000299c:	00000013          	nop
}
300029a0:	00c12083          	lw	ra,12(sp)
300029a4:	00812403          	lw	s0,8(sp)
300029a8:	01010113          	addi	sp,sp,16
300029ac:	00008067          	ret

300029b0 <queue_push>:

void queue_push(struct TCB * head,struct TCB * p){
300029b0:	fe010113          	addi	sp,sp,-32
300029b4:	00812e23          	sw	s0,28(sp)
300029b8:	02010413          	addi	s0,sp,32
300029bc:	fea42623          	sw	a0,-20(s0)
300029c0:	feb42423          	sw	a1,-24(s0)
    p->next = head->next;
300029c4:	fec42783          	lw	a5,-20(s0)
300029c8:	11c7a703          	lw	a4,284(a5)
300029cc:	fe842783          	lw	a5,-24(s0)
300029d0:	10e7ae23          	sw	a4,284(a5)
    head->next->pre = p;
300029d4:	fec42783          	lw	a5,-20(s0)
300029d8:	11c7a783          	lw	a5,284(a5)
300029dc:	fe842703          	lw	a4,-24(s0)
300029e0:	10e7ac23          	sw	a4,280(a5)
    head->next = p;
300029e4:	fec42783          	lw	a5,-20(s0)
300029e8:	fe842703          	lw	a4,-24(s0)
300029ec:	10e7ae23          	sw	a4,284(a5)
    p->pre = head;
300029f0:	fe842783          	lw	a5,-24(s0)
300029f4:	fec42703          	lw	a4,-20(s0)
300029f8:	10e7ac23          	sw	a4,280(a5)
    return;
300029fc:	00000013          	nop
}
30002a00:	01c12403          	lw	s0,28(sp)
30002a04:	02010113          	addi	sp,sp,32
30002a08:	00008067          	ret

30002a0c <thread_create>:


int thread_create(void (*func)(void)){
30002a0c:	fe010113          	addi	sp,sp,-32
30002a10:	00112e23          	sw	ra,28(sp)
30002a14:	00812c23          	sw	s0,24(sp)
30002a18:	02010413          	addi	s0,sp,32
30002a1c:	fea42623          	sw	a0,-20(s0)
    thread_tcb[cur_thread_num].sp=(reg_t)&thread_stack[cur_thread_num][stack_size-1];
30002a20:	8141a783          	lw	a5,-2028(gp) # 30007b2c <cur_thread_num>
30002a24:	00b79793          	slli	a5,a5,0xb
30002a28:	7ff78713          	addi	a4,a5,2047
30002a2c:	300107b7          	lui	a5,0x30010
30002a30:	efc78793          	addi	a5,a5,-260 # 3000fefc <thread_stack>
30002a34:	00f70733          	add	a4,a4,a5
30002a38:	8141a683          	lw	a3,-2028(gp) # 30007b2c <cur_thread_num>
30002a3c:	00070613          	mv	a2,a4
30002a40:	3000f7b7          	lui	a5,0x3000f
30002a44:	c7c78713          	addi	a4,a5,-900 # 3000ec7c <thread_tcb>
30002a48:	12800793          	li	a5,296
30002a4c:	02f687b3          	mul	a5,a3,a5
30002a50:	00f707b3          	add	a5,a4,a5
30002a54:	00c7a223          	sw	a2,4(a5)
    thread_tcb[cur_thread_num].ra=(reg_t)func;
30002a58:	8141a603          	lw	a2,-2028(gp) # 30007b2c <cur_thread_num>
30002a5c:	fec42703          	lw	a4,-20(s0)
30002a60:	3000f7b7          	lui	a5,0x3000f
30002a64:	c7c78693          	addi	a3,a5,-900 # 3000ec7c <thread_tcb>
30002a68:	12800793          	li	a5,296
30002a6c:	02f607b3          	mul	a5,a2,a5
30002a70:	00f687b3          	add	a5,a3,a5
30002a74:	00e7a023          	sw	a4,0(a5)
    thread_tcb[cur_thread_num].mstatus=(reg_t)0x00000008;
30002a78:	8141a683          	lw	a3,-2028(gp) # 30007b2c <cur_thread_num>
30002a7c:	3000f7b7          	lui	a5,0x3000f
30002a80:	c7c78713          	addi	a4,a5,-900 # 3000ec7c <thread_tcb>
30002a84:	12800793          	li	a5,296
30002a88:	02f687b3          	mul	a5,a3,a5
30002a8c:	00f707b3          	add	a5,a4,a5
30002a90:	00800713          	li	a4,8
30002a94:	06e7a623          	sw	a4,108(a5)
    thread_tcb[cur_thread_num].mtvec = (reg_t)int_vector;
30002a98:	8141a603          	lw	a2,-2028(gp) # 30007b2c <cur_thread_num>
30002a9c:	300017b7          	lui	a5,0x30001
30002aa0:	22078713          	addi	a4,a5,544 # 30001220 <int_vector>
30002aa4:	3000f7b7          	lui	a5,0x3000f
30002aa8:	c7c78693          	addi	a3,a5,-900 # 3000ec7c <thread_tcb>
30002aac:	12800793          	li	a5,296
30002ab0:	02f607b3          	mul	a5,a2,a5
30002ab4:	00f687b3          	add	a5,a3,a5
30002ab8:	06e7a823          	sw	a4,112(a5)
    thread_tcb[cur_thread_num].thread_id = cur_thread_num;
30002abc:	8141a603          	lw	a2,-2028(gp) # 30007b2c <cur_thread_num>
30002ac0:	8141a703          	lw	a4,-2028(gp) # 30007b2c <cur_thread_num>
30002ac4:	3000f7b7          	lui	a5,0x3000f
30002ac8:	c7c78693          	addi	a3,a5,-900 # 3000ec7c <thread_tcb>
30002acc:	12800793          	li	a5,296
30002ad0:	02f607b3          	mul	a5,a2,a5
30002ad4:	00f687b3          	add	a5,a3,a5
30002ad8:	12e7a023          	sw	a4,288(a5)
    thread_tcb[cur_thread_num].count = 0;
30002adc:	8141a683          	lw	a3,-2028(gp) # 30007b2c <cur_thread_num>
30002ae0:	3000f7b7          	lui	a5,0x3000f
30002ae4:	c7c78713          	addi	a4,a5,-900 # 3000ec7c <thread_tcb>
30002ae8:	12800793          	li	a5,296
30002aec:	02f687b3          	mul	a5,a3,a5
30002af0:	00f707b3          	add	a5,a4,a5
30002af4:	1207a223          	sw	zero,292(a5)
            uart_puts("created tcb's addr is ");
            uart_put_reg((reg_t)&thread_tcb[cur_thread_num]);
        #endif
        printf("created func's addr is 0x%x\n",func);
    #endif
    queue_push(head,&thread_tcb[cur_thread_num]);
30002af8:	8181a683          	lw	a3,-2024(gp) # 30007b30 <head>
30002afc:	8141a703          	lw	a4,-2028(gp) # 30007b2c <cur_thread_num>
30002b00:	12800793          	li	a5,296
30002b04:	02f70733          	mul	a4,a4,a5
30002b08:	3000f7b7          	lui	a5,0x3000f
30002b0c:	c7c78793          	addi	a5,a5,-900 # 3000ec7c <thread_tcb>
30002b10:	00f707b3          	add	a5,a4,a5
30002b14:	00078593          	mv	a1,a5
30002b18:	00068513          	mv	a0,a3
30002b1c:	e95ff0ef          	jal	ra,300029b0 <queue_push>
    cur_thread_num++;
30002b20:	8141a783          	lw	a5,-2028(gp) # 30007b2c <cur_thread_num>
30002b24:	00178713          	addi	a4,a5,1
30002b28:	80e1aa23          	sw	a4,-2028(gp) # 30007b2c <cur_thread_num>
    return 0;
30002b2c:	00000793          	li	a5,0
}
30002b30:	00078513          	mv	a0,a5
30002b34:	01c12083          	lw	ra,28(sp)
30002b38:	01812403          	lw	s0,24(sp)
30002b3c:	02010113          	addi	sp,sp,32
30002b40:	00008067          	ret

30002b44 <sche_thread>:

TCB_addr用于进行抢占式线程调用
-1：不进行抢占
>=0: 作为TCB地址，并抢占
*/
void sche_thread(int status, int TCB_addr){
30002b44:	fd010113          	addi	sp,sp,-48
30002b48:	02112623          	sw	ra,44(sp)
30002b4c:	02812423          	sw	s0,40(sp)
30002b50:	03010413          	addi	s0,sp,48
30002b54:	fca42e23          	sw	a0,-36(s0)
30002b58:	fcb42c23          	sw	a1,-40(s0)
    printf("------------------------------------\n ");
30002b5c:	300077b7          	lui	a5,0x30007
30002b60:	0a078513          	addi	a0,a5,160 # 300070a0 <_data+0xa0>
30002b64:	efdfe0ef          	jal	ra,30001a60 <printf>
    struct TCB * next_TCB = TCB_addr;
30002b68:	fd842783          	lw	a5,-40(s0)
30002b6c:	fef42623          	sw	a5,-20(s0)
    #ifdef DEBUG
        printf("sche_thread!!\n ");
    #endif
    struct TCB * cur_TCB = r_mscratch();
30002b70:	d21ff0ef          	jal	ra,30002890 <r_mscratch>
30002b74:	00050793          	mv	a5,a0
30002b78:	fef42423          	sw	a5,-24(s0)
    switch (status)
30002b7c:	fdc42783          	lw	a5,-36(s0)
30002b80:	00079c63          	bnez	a5,30002b98 <sche_thread+0x54>
    {
        case 0:
            queue_push(head,cur_TCB);
30002b84:	8181a783          	lw	a5,-2024(gp) # 30007b30 <head>
30002b88:	fe842583          	lw	a1,-24(s0)
30002b8c:	00078513          	mv	a0,a5
30002b90:	e21ff0ef          	jal	ra,300029b0 <queue_push>
            break;
30002b94:	0080006f          	j	30002b9c <sche_thread+0x58>
        default:
            break;
30002b98:	00000013          	nop
    }
    if(TCB_addr == -1){
30002b9c:	fd842703          	lw	a4,-40(s0)
30002ba0:	fff00793          	li	a5,-1
30002ba4:	02f71e63          	bne	a4,a5,30002be0 <sche_thread+0x9c>
        next_TCB = tail->pre;
30002ba8:	81c1a783          	lw	a5,-2020(gp) # 30007b34 <tail>
30002bac:	1187a783          	lw	a5,280(a5)
30002bb0:	fef42623          	sw	a5,-20(s0)
        tail->pre->pre->next = tail;
30002bb4:	81c1a783          	lw	a5,-2020(gp) # 30007b34 <tail>
30002bb8:	1187a783          	lw	a5,280(a5)
30002bbc:	1187a783          	lw	a5,280(a5)
30002bc0:	81c1a703          	lw	a4,-2020(gp) # 30007b34 <tail>
30002bc4:	10e7ae23          	sw	a4,284(a5)
        tail->pre = tail->pre->pre;
30002bc8:	81c1a783          	lw	a5,-2020(gp) # 30007b34 <tail>
30002bcc:	1187a703          	lw	a4,280(a5)
30002bd0:	81c1a783          	lw	a5,-2020(gp) # 30007b34 <tail>
30002bd4:	11872703          	lw	a4,280(a4)
30002bd8:	10e7ac23          	sw	a4,280(a5)
30002bdc:	02c0006f          	j	30002c08 <sche_thread+0xc4>
    }
    else{
        next_TCB->pre->next = next_TCB->next;
30002be0:	fec42783          	lw	a5,-20(s0)
30002be4:	1187a783          	lw	a5,280(a5)
30002be8:	fec42703          	lw	a4,-20(s0)
30002bec:	11c72703          	lw	a4,284(a4)
30002bf0:	10e7ae23          	sw	a4,284(a5)
        next_TCB->next->pre = next_TCB->pre;
30002bf4:	fec42783          	lw	a5,-20(s0)
30002bf8:	11c7a783          	lw	a5,284(a5)
30002bfc:	fec42703          	lw	a4,-20(s0)
30002c00:	11872703          	lw	a4,280(a4)
30002c04:	10e7ac23          	sw	a4,280(a5)
    }

    #ifdef DEBUG
        printf("value of mie in last TCB is: %u\n ",r_mie());
    #endif
    next_TCB->count++;
30002c08:	fec42783          	lw	a5,-20(s0)
30002c0c:	1247a783          	lw	a5,292(a5)
30002c10:	00178713          	addi	a4,a5,1
30002c14:	fec42783          	lw	a5,-20(s0)
30002c18:	12e7a223          	sw	a4,292(a5)

    switch_to(next_TCB);
30002c1c:	fec42503          	lw	a0,-20(s0)
30002c20:	cc0fe0ef          	jal	ra,300010e0 <switch_to>
    #ifdef DEBUG
        printf("value of mtvec in the end of sche_thread is: 0x%x\n ",(reg_t)r_mtvec);
    #endif
    return;
30002c24:	00000013          	nop
}
30002c28:	02c12083          	lw	ra,44(sp)
30002c2c:	02812403          	lw	s0,40(sp)
30002c30:	03010113          	addi	sp,sp,48
30002c34:	00008067          	ret

30002c38 <delay>:

int delay(int times){
30002c38:	fd010113          	addi	sp,sp,-48
30002c3c:	02812623          	sw	s0,44(sp)
30002c40:	03010413          	addi	s0,sp,48
30002c44:	fca42e23          	sw	a0,-36(s0)
    int weight=100000;
30002c48:	000187b7          	lui	a5,0x18
30002c4c:	6a078793          	addi	a5,a5,1696 # 186a0 <__stack_size+0x176a0>
30002c50:	fef42623          	sw	a5,-20(s0)
    #ifdef FPGA
        weight = 5000;
30002c54:	000017b7          	lui	a5,0x1
30002c58:	38878793          	addi	a5,a5,904 # 1388 <__stack_size+0x388>
30002c5c:	fef42623          	sw	a5,-20(s0)
    #endif
    times *= weight;
30002c60:	fdc42703          	lw	a4,-36(s0)
30002c64:	fec42783          	lw	a5,-20(s0)
30002c68:	02f707b3          	mul	a5,a4,a5
30002c6c:	fcf42e23          	sw	a5,-36(s0)
    while(times--){
30002c70:	00000013          	nop
30002c74:	fdc42783          	lw	a5,-36(s0)
30002c78:	fff78713          	addi	a4,a5,-1
30002c7c:	fce42e23          	sw	a4,-36(s0)
30002c80:	fe079ae3          	bnez	a5,30002c74 <delay+0x3c>

    }
    return 0;
30002c84:	00000793          	li	a5,0
30002c88:	00078513          	mv	a0,a5
30002c8c:	02c12403          	lw	s0,44(sp)
30002c90:	03010113          	addi	sp,sp,48
30002c94:	00008067          	ret

30002c98 <w_mstatus>:
{
30002c98:	fe010113          	addi	sp,sp,-32
30002c9c:	00812e23          	sw	s0,28(sp)
30002ca0:	02010413          	addi	s0,sp,32
30002ca4:	fea42623          	sw	a0,-20(s0)
	asm volatile("csrw mstatus, %0" : : "r" (x));
30002ca8:	fec42783          	lw	a5,-20(s0)
30002cac:	30079073          	csrw	mstatus,a5
}
30002cb0:	00000013          	nop
30002cb4:	01c12403          	lw	s0,28(sp)
30002cb8:	02010113          	addi	sp,sp,32
30002cbc:	00008067          	ret

30002cc0 <w_mtvec>:

/* Machine-mode interrupt vector */
static inline void w_mtvec(reg_t x)
{
30002cc0:	fe010113          	addi	sp,sp,-32
30002cc4:	00812e23          	sw	s0,28(sp)
30002cc8:	02010413          	addi	s0,sp,32
30002ccc:	fea42623          	sw	a0,-20(s0)
	asm volatile("csrw mtvec, %0" : : "r" (x));
30002cd0:	fec42783          	lw	a5,-20(s0)
30002cd4:	30579073          	csrw	mtvec,a5
}
30002cd8:	00000013          	nop
30002cdc:	01c12403          	lw	s0,28(sp)
30002ce0:	02010113          	addi	sp,sp,32
30002ce4:	00008067          	ret

30002ce8 <int_init>:

void int_test_8();
void int_test_12();
void int_test_15();

void int_init(){
30002ce8:	ff010113          	addi	sp,sp,-16
30002cec:	00112623          	sw	ra,12(sp)
30002cf0:	00812423          	sw	s0,8(sp)
30002cf4:	01010413          	addi	s0,sp,16

	//开中断
	w_mstatus(8);
30002cf8:	00800513          	li	a0,8
30002cfc:	f9dff0ef          	jal	ra,30002c98 <w_mstatus>
#ifdef DEBUG
	printf("value of int_vector in int_init is: 0x%x\n ",(void*) int_vector);
	printf("int_init\n ");
#endif
    w_mtvec((reg_t)int_vector);
30002d00:	300017b7          	lui	a5,0x30001
30002d04:	22078793          	addi	a5,a5,544 # 30001220 <int_vector>
30002d08:	00078513          	mv	a0,a5
30002d0c:	fb5ff0ef          	jal	ra,30002cc0 <w_mtvec>
}
30002d10:	00000013          	nop
30002d14:	00c12083          	lw	ra,12(sp)
30002d18:	00812403          	lw	s0,8(sp)
30002d1c:	01010113          	addi	sp,sp,16
30002d20:	00008067          	ret

30002d24 <external_int>:

void external_int(){
30002d24:	ff010113          	addi	sp,sp,-16
30002d28:	00812623          	sw	s0,12(sp)
30002d2c:	01010413          	addi	s0,sp,16
	}
	else if(status==3){
		int_test_8();
	}
#endif
	return;
30002d30:	00000013          	nop
}
30002d34:	00c12403          	lw	s0,12(sp)
30002d38:	01010113          	addi	sp,sp,16
30002d3c:	00008067          	ret

30002d40 <int_handler>:


reg_t int_handler(reg_t pc,reg_t cause){
30002d40:	fd010113          	addi	sp,sp,-48
30002d44:	02112623          	sw	ra,44(sp)
30002d48:	02812423          	sw	s0,40(sp)
30002d4c:	03010413          	addi	s0,sp,48
30002d50:	fca42e23          	sw	a0,-36(s0)
30002d54:	fcb42c23          	sw	a1,-40(s0)
    reg_t return_pc = pc;
30002d58:	fdc42783          	lw	a5,-36(s0)
30002d5c:	fef42623          	sw	a5,-20(s0)
	reg_t cause_code = cause & 0xfff;
30002d60:	fd842703          	lw	a4,-40(s0)
30002d64:	000017b7          	lui	a5,0x1
30002d68:	fff78793          	addi	a5,a5,-1 # fff <__stack_size-0x1>
30002d6c:	00f777b3          	and	a5,a4,a5
30002d70:	fef42423          	sw	a5,-24(s0)

    //if interupt not exception
	if (cause & 0x80000000)
30002d74:	fd842783          	lw	a5,-40(s0)
30002d78:	0607da63          	bgez	a5,30002dec <int_handler+0xac>
	{
		/* Asynchronous trap - interrupt */
		switch (cause_code)
30002d7c:	fe842783          	lw	a5,-24(s0)
30002d80:	ffd78793          	addi	a5,a5,-3
30002d84:	00c00713          	li	a4,12
30002d88:	04f76a63          	bltu	a4,a5,30002ddc <int_handler+0x9c>
30002d8c:	00279713          	slli	a4,a5,0x2
30002d90:	300077b7          	lui	a5,0x30007
30002d94:	11078793          	addi	a5,a5,272 # 30007110 <_data+0x110>
30002d98:	00f707b3          	add	a5,a4,a5
30002d9c:	0007a783          	lw	a5,0(a5)
30002da0:	00078067          	jr	a5
		{
		case 3:
			printf("software interruption!\n ");
30002da4:	300077b7          	lui	a5,0x30007
30002da8:	0c878513          	addi	a0,a5,200 # 300070c8 <_data+0xc8>
30002dac:	cb5fe0ef          	jal	ra,30001a60 <printf>
			break;
30002db0:	04c0006f          	j	30002dfc <int_handler+0xbc>
		#ifdef FPGA
		case 4:
			timer_handler();
30002db4:	e3dfe0ef          	jal	ra,30001bf0 <timer_handler>
			break;
30002db8:	0440006f          	j	30002dfc <int_handler+0xbc>
		case 7:
			timer_handler();
			break;
		#endif
		case 8:
			int_test_8();
30002dbc:	058000ef          	jal	ra,30002e14 <int_test_8>
			break;
30002dc0:	03c0006f          	j	30002dfc <int_handler+0xbc>
		case 11:
			external_int();
30002dc4:	f61ff0ef          	jal	ra,30002d24 <external_int>
			break;
30002dc8:	0340006f          	j	30002dfc <int_handler+0xbc>
		case 12:
			int_test_12();
30002dcc:	084000ef          	jal	ra,30002e50 <int_test_12>
			break;
30002dd0:	02c0006f          	j	30002dfc <int_handler+0xbc>
		case 15:
			int_test_15();
30002dd4:	0b8000ef          	jal	ra,30002e8c <int_test_15>
			break;
30002dd8:	0240006f          	j	30002dfc <int_handler+0xbc>
		default:
			printf("unknown async exception!\n ");
30002ddc:	300077b7          	lui	a5,0x30007
30002de0:	0e478513          	addi	a0,a5,228 # 300070e4 <_data+0xe4>
30002de4:	c7dfe0ef          	jal	ra,30001a60 <printf>
			break;
30002de8:	0140006f          	j	30002dfc <int_handler+0xbc>
		}
	}
	else
	{
		printf("Exception!!\n ");
30002dec:	300077b7          	lui	a5,0x30007
30002df0:	10078513          	addi	a0,a5,256 # 30007100 <_data+0x100>
30002df4:	c6dfe0ef          	jal	ra,30001a60 <printf>
		while(1);
30002df8:	0000006f          	j	30002df8 <int_handler+0xb8>
		return return_pc;
	}

	return return_pc;
30002dfc:	fec42783          	lw	a5,-20(s0)
}
30002e00:	00078513          	mv	a0,a5
30002e04:	02c12083          	lw	ra,44(sp)
30002e08:	02812403          	lw	s0,40(sp)
30002e0c:	03010113          	addi	sp,sp,48
30002e10:	00008067          	ret

30002e14 <int_test_8>:

void int_test_8(){
30002e14:	ff010113          	addi	sp,sp,-16
30002e18:	00112623          	sw	ra,12(sp)
30002e1c:	00812423          	sw	s0,8(sp)
30002e20:	01010413          	addi	s0,sp,16
	timer_reset();
30002e24:	d9dfe0ef          	jal	ra,30001bc0 <timer_reset>
	sche_thread(0,&thread_tcb[3]);
30002e28:	3000f7b7          	lui	a5,0x3000f
30002e2c:	ff478793          	addi	a5,a5,-12 # 3000eff4 <thread_tcb+0x378>
30002e30:	00078593          	mv	a1,a5
30002e34:	00000513          	li	a0,0
30002e38:	d0dff0ef          	jal	ra,30002b44 <sche_thread>
}
30002e3c:	00000013          	nop
30002e40:	00c12083          	lw	ra,12(sp)
30002e44:	00812403          	lw	s0,8(sp)
30002e48:	01010113          	addi	sp,sp,16
30002e4c:	00008067          	ret

30002e50 <int_test_12>:

void int_test_12(){
30002e50:	ff010113          	addi	sp,sp,-16
30002e54:	00112623          	sw	ra,12(sp)
30002e58:	00812423          	sw	s0,8(sp)
30002e5c:	01010413          	addi	s0,sp,16
	timer_reset();
30002e60:	d61fe0ef          	jal	ra,30001bc0 <timer_reset>
	sche_thread(0,&thread_tcb[2]);
30002e64:	3000f7b7          	lui	a5,0x3000f
30002e68:	ecc78793          	addi	a5,a5,-308 # 3000eecc <thread_tcb+0x250>
30002e6c:	00078593          	mv	a1,a5
30002e70:	00000513          	li	a0,0
30002e74:	cd1ff0ef          	jal	ra,30002b44 <sche_thread>
}
30002e78:	00000013          	nop
30002e7c:	00c12083          	lw	ra,12(sp)
30002e80:	00812403          	lw	s0,8(sp)
30002e84:	01010113          	addi	sp,sp,16
30002e88:	00008067          	ret

30002e8c <int_test_15>:

void int_test_15(){
30002e8c:	ff010113          	addi	sp,sp,-16
30002e90:	00112623          	sw	ra,12(sp)
30002e94:	00812423          	sw	s0,8(sp)
30002e98:	01010413          	addi	s0,sp,16
	timer_reset();
30002e9c:	d25fe0ef          	jal	ra,30001bc0 <timer_reset>
	sche_thread(0,&thread_tcb[1]);
30002ea0:	3000f7b7          	lui	a5,0x3000f
30002ea4:	da478793          	addi	a5,a5,-604 # 3000eda4 <thread_tcb+0x128>
30002ea8:	00078593          	mv	a1,a5
30002eac:	00000513          	li	a0,0
30002eb0:	c95ff0ef          	jal	ra,30002b44 <sche_thread>
30002eb4:	00000013          	nop
30002eb8:	00c12083          	lw	ra,12(sp)
30002ebc:	00812403          	lw	s0,8(sp)
30002ec0:	01010113          	addi	sp,sp,16
30002ec4:	00008067          	ret

30002ec8 <pre_process>:
#include "stdio.h"
#include "debug.h"
#include "thread.h"
void pre_process(){
30002ec8:	ff010113          	addi	sp,sp,-16
30002ecc:	00112623          	sw	ra,12(sp)
30002ed0:	00812423          	sw	s0,8(sp)
30002ed4:	01010413          	addi	s0,sp,16
    uart_init();
30002ed8:	bf9fe0ef          	jal	ra,30001ad0 <uart_init>
    printf("It's bootblock!\n ");
30002edc:	300077b7          	lui	a5,0x30007
30002ee0:	14478513          	addi	a0,a5,324 # 30007144 <_data+0x144>
30002ee4:	b7dfe0ef          	jal	ra,30001a60 <printf>
    delay(MAIN_D_TIME);
30002ee8:	0c800513          	li	a0,200
30002eec:	d4dff0ef          	jal	ra,30002c38 <delay>
30002ef0:	00000013          	nop
30002ef4:	00c12083          	lw	ra,12(sp)
30002ef8:	00812403          	lw	s0,8(sp)
30002efc:	01010113          	addi	sp,sp,16
30002f00:	00008067          	ret

30002f04 <main>:
// #include "user.h"
#include "timer.h"
#include "os_cnn.h"

void main(void)
{
30002f04:	ff010113          	addi	sp,sp,-16
30002f08:	00112623          	sw	ra,12(sp)
30002f0c:	00812423          	sw	s0,8(sp)
30002f10:	01010413          	addi	s0,sp,16
	printf("Hello, OS!\n ");
30002f14:	300077b7          	lui	a5,0x30007
30002f18:	15878513          	addi	a0,a5,344 # 30007158 <_data+0x158>
30002f1c:	b45fe0ef          	jal	ra,30001a60 <printf>
	delay(MAIN_D_TIME);
30002f20:	0c800513          	li	a0,200
30002f24:	d15ff0ef          	jal	ra,30002c38 <delay>
	printf("- - - - - - - - - - - - - - - - - - - - - -\n ");
30002f28:	300077b7          	lui	a5,0x30007
30002f2c:	16878513          	addi	a0,a5,360 # 30007168 <_data+0x168>
30002f30:	b31fe0ef          	jal	ra,30001a60 <printf>
	// dijkstraMain();
	// quickSortMain();
	// commonDivisorMain();

	// timer_init();
	thread_init();
30002f34:	985ff0ef          	jal	ra,300028b8 <thread_init>

#ifdef QEMU
	plic_init();
#endif

	int_init();
30002f38:	db1ff0ef          	jal	ra,30002ce8 <int_init>
#endif
	// thread_create((void*)print_task);
	// thread_create((void*)count_task);
	// thread_create((void*)draw_task);

	forward((char *)WEIGHT_ADDR,(char *)IAMGES_ADDR);
30002f3c:	200005b7          	lui	a1,0x20000
30002f40:	20002537          	lui	a0,0x20002
30002f44:	b78ff0ef          	jal	ra,300022bc <forward>
	

	while(1){
        printf("Main Thread!!\n ");
30002f48:	300077b7          	lui	a5,0x30007
30002f4c:	19878513          	addi	a0,a5,408 # 30007198 <_data+0x198>
30002f50:	b11fe0ef          	jal	ra,30001a60 <printf>
		delay(MAIN_D_TIME);
30002f54:	0c800513          	li	a0,200
30002f58:	ce1ff0ef          	jal	ra,30002c38 <delay>
        printf("Main Thread!!\n ");
30002f5c:	fedff06f          	j	30002f48 <main+0x44>

30002f60 <__floatsidf>:
30002f60:	ff010113          	addi	sp,sp,-16
30002f64:	00112623          	sw	ra,12(sp)
30002f68:	00812423          	sw	s0,8(sp)
30002f6c:	00912223          	sw	s1,4(sp)
30002f70:	08050663          	beqz	a0,30002ffc <__floatsidf+0x9c>
30002f74:	41f55793          	srai	a5,a0,0x1f
30002f78:	00a7c433          	xor	s0,a5,a0
30002f7c:	40f40433          	sub	s0,s0,a5
30002f80:	01f55493          	srli	s1,a0,0x1f
30002f84:	00040513          	mv	a0,s0
30002f88:	785000ef          	jal	ra,30003f0c <__clzsi2>
30002f8c:	41e00713          	li	a4,1054
30002f90:	00a00793          	li	a5,10
30002f94:	40a70733          	sub	a4,a4,a0
30002f98:	04a7c863          	blt	a5,a0,30002fe8 <__floatsidf+0x88>
30002f9c:	00b00793          	li	a5,11
30002fa0:	40a787b3          	sub	a5,a5,a0
30002fa4:	01550513          	addi	a0,a0,21 # 20002015 <__stack_size+0x20001015>
30002fa8:	00f457b3          	srl	a5,s0,a5
30002fac:	00a41433          	sll	s0,s0,a0
30002fb0:	00048513          	mv	a0,s1
30002fb4:	00c79793          	slli	a5,a5,0xc
30002fb8:	00c7d793          	srli	a5,a5,0xc
30002fbc:	01471713          	slli	a4,a4,0x14
30002fc0:	01f51513          	slli	a0,a0,0x1f
30002fc4:	00f76733          	or	a4,a4,a5
30002fc8:	00c12083          	lw	ra,12(sp)
30002fcc:	00a767b3          	or	a5,a4,a0
30002fd0:	00040513          	mv	a0,s0
30002fd4:	00812403          	lw	s0,8(sp)
30002fd8:	00412483          	lw	s1,4(sp)
30002fdc:	00078593          	mv	a1,a5
30002fe0:	01010113          	addi	sp,sp,16
30002fe4:	00008067          	ret
30002fe8:	ff550513          	addi	a0,a0,-11
30002fec:	00a417b3          	sll	a5,s0,a0
30002ff0:	00048513          	mv	a0,s1
30002ff4:	00000413          	li	s0,0
30002ff8:	fbdff06f          	j	30002fb4 <__floatsidf+0x54>
30002ffc:	00000713          	li	a4,0
30003000:	00000793          	li	a5,0
30003004:	ff1ff06f          	j	30002ff4 <__floatsidf+0x94>

30003008 <__addsf3>:
30003008:	ff010113          	addi	sp,sp,-16
3000300c:	00800737          	lui	a4,0x800
30003010:	fff70713          	addi	a4,a4,-1 # 7fffff <__stack_size+0x7fefff>
30003014:	0175d613          	srli	a2,a1,0x17
30003018:	00812423          	sw	s0,8(sp)
3000301c:	01755413          	srli	s0,a0,0x17
30003020:	00a777b3          	and	a5,a4,a0
30003024:	01212023          	sw	s2,0(sp)
30003028:	00b77733          	and	a4,a4,a1
3000302c:	0ff47413          	zext.b	s0,s0
30003030:	0ff67613          	zext.b	a2,a2
30003034:	00112623          	sw	ra,12(sp)
30003038:	00912223          	sw	s1,4(sp)
3000303c:	01f55913          	srli	s2,a0,0x1f
30003040:	01f5d593          	srli	a1,a1,0x1f
30003044:	00379793          	slli	a5,a5,0x3
30003048:	00371713          	slli	a4,a4,0x3
3000304c:	40c406b3          	sub	a3,s0,a2
30003050:	20b91863          	bne	s2,a1,30003260 <__addsf3+0x258>
30003054:	12d05863          	blez	a3,30003184 <__addsf3+0x17c>
30003058:	02061e63          	bnez	a2,30003094 <__addsf3+0x8c>
3000305c:	1e070e63          	beqz	a4,30003258 <__addsf3+0x250>
30003060:	fff68613          	addi	a2,a3,-1
30003064:	02061063          	bnez	a2,30003084 <__addsf3+0x7c>
30003068:	00e787b3          	add	a5,a5,a4
3000306c:	04000737          	lui	a4,0x4000
30003070:	00e7f733          	and	a4,a5,a4
30003074:	00200413          	li	s0,2
30003078:	0e071863          	bnez	a4,30003168 <__addsf3+0x160>
3000307c:	00100413          	li	s0,1
30003080:	0340006f          	j	300030b4 <__addsf3+0xac>
30003084:	0ff00593          	li	a1,255
30003088:	02b69063          	bne	a3,a1,300030a8 <__addsf3+0xa0>
3000308c:	0ff00413          	li	s0,255
30003090:	0240006f          	j	300030b4 <__addsf3+0xac>
30003094:	0ff00613          	li	a2,255
30003098:	00c40e63          	beq	s0,a2,300030b4 <__addsf3+0xac>
3000309c:	04000637          	lui	a2,0x4000
300030a0:	00c76733          	or	a4,a4,a2
300030a4:	00068613          	mv	a2,a3
300030a8:	01b00693          	li	a3,27
300030ac:	08c6d263          	bge	a3,a2,30003130 <__addsf3+0x128>
300030b0:	00178793          	addi	a5,a5,1
300030b4:	0077f713          	andi	a4,a5,7
300030b8:	00070a63          	beqz	a4,300030cc <__addsf3+0xc4>
300030bc:	00f7f713          	andi	a4,a5,15
300030c0:	00400693          	li	a3,4
300030c4:	00d70463          	beq	a4,a3,300030cc <__addsf3+0xc4>
300030c8:	00478793          	addi	a5,a5,4
300030cc:	04000737          	lui	a4,0x4000
300030d0:	00e7f733          	and	a4,a5,a4
300030d4:	38070063          	beqz	a4,30003454 <__addsf3+0x44c>
300030d8:	00140413          	addi	s0,s0,1
300030dc:	0ff00713          	li	a4,255
300030e0:	00000493          	li	s1,0
300030e4:	00e40a63          	beq	s0,a4,300030f8 <__addsf3+0xf0>
300030e8:	0037d493          	srli	s1,a5,0x3
300030ec:	1f8007b7          	lui	a5,0x1f800
300030f0:	fff78793          	addi	a5,a5,-1 # 1f7fffff <__stack_size+0x1f7fefff>
300030f4:	00f4f4b3          	and	s1,s1,a5
300030f8:	01741413          	slli	s0,s0,0x17
300030fc:	7f8007b7          	lui	a5,0x7f800
30003100:	00949493          	slli	s1,s1,0x9
30003104:	0094d493          	srli	s1,s1,0x9
30003108:	00f47433          	and	s0,s0,a5
3000310c:	00946433          	or	s0,s0,s1
30003110:	01f91513          	slli	a0,s2,0x1f
30003114:	00c12083          	lw	ra,12(sp)
30003118:	00a46533          	or	a0,s0,a0
3000311c:	00812403          	lw	s0,8(sp)
30003120:	00412483          	lw	s1,4(sp)
30003124:	00012903          	lw	s2,0(sp)
30003128:	01010113          	addi	sp,sp,16
3000312c:	00008067          	ret
30003130:	02000693          	li	a3,32
30003134:	40c686b3          	sub	a3,a3,a2
30003138:	00c755b3          	srl	a1,a4,a2
3000313c:	00d71733          	sll	a4,a4,a3
30003140:	00e03733          	snez	a4,a4
30003144:	00e5e733          	or	a4,a1,a4
30003148:	00e787b3          	add	a5,a5,a4
3000314c:	04000737          	lui	a4,0x4000
30003150:	00e7f733          	and	a4,a5,a4
30003154:	f60700e3          	beqz	a4,300030b4 <__addsf3+0xac>
30003158:	00140413          	addi	s0,s0,1
3000315c:	0ff00713          	li	a4,255
30003160:	00000493          	li	s1,0
30003164:	f8e40ae3          	beq	s0,a4,300030f8 <__addsf3+0xf0>
30003168:	7e000737          	lui	a4,0x7e000
3000316c:	0017f693          	andi	a3,a5,1
30003170:	fff70713          	addi	a4,a4,-1 # 7dffffff <_sp+0x4defffff>
30003174:	0017d793          	srli	a5,a5,0x1
30003178:	00e7f7b3          	and	a5,a5,a4
3000317c:	00d7e7b3          	or	a5,a5,a3
30003180:	f35ff06f          	j	300030b4 <__addsf3+0xac>
30003184:	06068a63          	beqz	a3,300031f8 <__addsf3+0x1f0>
30003188:	408606b3          	sub	a3,a2,s0
3000318c:	02041063          	bnez	s0,300031ac <__addsf3+0x1a4>
30003190:	2a078263          	beqz	a5,30003434 <__addsf3+0x42c>
30003194:	fff68593          	addi	a1,a3,-1
30003198:	ec0588e3          	beqz	a1,30003068 <__addsf3+0x60>
3000319c:	0ff00513          	li	a0,255
300031a0:	02a69063          	bne	a3,a0,300031c0 <__addsf3+0x1b8>
300031a4:	00070793          	mv	a5,a4
300031a8:	ee5ff06f          	j	3000308c <__addsf3+0x84>
300031ac:	0ff00593          	li	a1,255
300031b0:	feb60ae3          	beq	a2,a1,300031a4 <__addsf3+0x19c>
300031b4:	040005b7          	lui	a1,0x4000
300031b8:	00b7e7b3          	or	a5,a5,a1
300031bc:	00068593          	mv	a1,a3
300031c0:	01b00693          	li	a3,27
300031c4:	00b6d863          	bge	a3,a1,300031d4 <__addsf3+0x1cc>
300031c8:	00170793          	addi	a5,a4,1
300031cc:	00060413          	mv	s0,a2
300031d0:	ee5ff06f          	j	300030b4 <__addsf3+0xac>
300031d4:	02000693          	li	a3,32
300031d8:	40b686b3          	sub	a3,a3,a1
300031dc:	00b7d533          	srl	a0,a5,a1
300031e0:	00d797b3          	sll	a5,a5,a3
300031e4:	00f037b3          	snez	a5,a5
300031e8:	00f567b3          	or	a5,a0,a5
300031ec:	00e787b3          	add	a5,a5,a4
300031f0:	00060413          	mv	s0,a2
300031f4:	f59ff06f          	j	3000314c <__addsf3+0x144>
300031f8:	00140693          	addi	a3,s0,1
300031fc:	0fe6f613          	andi	a2,a3,254
30003200:	04061463          	bnez	a2,30003248 <__addsf3+0x240>
30003204:	02041663          	bnez	s0,30003230 <__addsf3+0x228>
30003208:	22078a63          	beqz	a5,3000343c <__addsf3+0x434>
3000320c:	ea0704e3          	beqz	a4,300030b4 <__addsf3+0xac>
30003210:	00e787b3          	add	a5,a5,a4
30003214:	04000737          	lui	a4,0x4000
30003218:	00e7f733          	and	a4,a5,a4
3000321c:	e8070ce3          	beqz	a4,300030b4 <__addsf3+0xac>
30003220:	fc000737          	lui	a4,0xfc000
30003224:	fff70713          	addi	a4,a4,-1 # fbffffff <_sp+0xcbefffff>
30003228:	00e7f7b3          	and	a5,a5,a4
3000322c:	e51ff06f          	j	3000307c <__addsf3+0x74>
30003230:	f6078ae3          	beqz	a5,300031a4 <__addsf3+0x19c>
30003234:	e4070ce3          	beqz	a4,3000308c <__addsf3+0x84>
30003238:	00000913          	li	s2,0
3000323c:	0ff00413          	li	s0,255
30003240:	004004b7          	lui	s1,0x400
30003244:	eb5ff06f          	j	300030f8 <__addsf3+0xf0>
30003248:	0ff00613          	li	a2,255
3000324c:	22c68063          	beq	a3,a2,3000346c <__addsf3+0x464>
30003250:	00e78733          	add	a4,a5,a4
30003254:	00175793          	srli	a5,a4,0x1
30003258:	00068413          	mv	s0,a3
3000325c:	e59ff06f          	j	300030b4 <__addsf3+0xac>
30003260:	08d05063          	blez	a3,300032e0 <__addsf3+0x2d8>
30003264:	06061263          	bnez	a2,300032c8 <__addsf3+0x2c0>
30003268:	fe0708e3          	beqz	a4,30003258 <__addsf3+0x250>
3000326c:	fff68613          	addi	a2,a3,-1
30003270:	00061863          	bnez	a2,30003280 <__addsf3+0x278>
30003274:	40e787b3          	sub	a5,a5,a4
30003278:	00100413          	li	s0,1
3000327c:	0340006f          	j	300032b0 <__addsf3+0x2a8>
30003280:	0ff00593          	li	a1,255
30003284:	e0b684e3          	beq	a3,a1,3000308c <__addsf3+0x84>
30003288:	01b00593          	li	a1,27
3000328c:	00100693          	li	a3,1
30003290:	00c5ce63          	blt	a1,a2,300032ac <__addsf3+0x2a4>
30003294:	02000693          	li	a3,32
30003298:	40c686b3          	sub	a3,a3,a2
3000329c:	00c755b3          	srl	a1,a4,a2
300032a0:	00d71733          	sll	a4,a4,a3
300032a4:	00e03733          	snez	a4,a4
300032a8:	00e5e6b3          	or	a3,a1,a4
300032ac:	40d787b3          	sub	a5,a5,a3
300032b0:	040004b7          	lui	s1,0x4000
300032b4:	0097f733          	and	a4,a5,s1
300032b8:	de070ee3          	beqz	a4,300030b4 <__addsf3+0xac>
300032bc:	fff48493          	addi	s1,s1,-1 # 3ffffff <__stack_size+0x3ffefff>
300032c0:	0097f4b3          	and	s1,a5,s1
300032c4:	1140006f          	j	300033d8 <__addsf3+0x3d0>
300032c8:	0ff00613          	li	a2,255
300032cc:	dec404e3          	beq	s0,a2,300030b4 <__addsf3+0xac>
300032d0:	04000637          	lui	a2,0x4000
300032d4:	00c76733          	or	a4,a4,a2
300032d8:	00068613          	mv	a2,a3
300032dc:	fadff06f          	j	30003288 <__addsf3+0x280>
300032e0:	08068063          	beqz	a3,30003360 <__addsf3+0x358>
300032e4:	408606b3          	sub	a3,a2,s0
300032e8:	02041863          	bnez	s0,30003318 <__addsf3+0x310>
300032ec:	14078c63          	beqz	a5,30003444 <__addsf3+0x43c>
300032f0:	fff68513          	addi	a0,a3,-1
300032f4:	00051863          	bnez	a0,30003304 <__addsf3+0x2fc>
300032f8:	40f707b3          	sub	a5,a4,a5
300032fc:	00058913          	mv	s2,a1
30003300:	f79ff06f          	j	30003278 <__addsf3+0x270>
30003304:	0ff00813          	li	a6,255
30003308:	03069263          	bne	a3,a6,3000332c <__addsf3+0x324>
3000330c:	00070793          	mv	a5,a4
30003310:	0ff00413          	li	s0,255
30003314:	1380006f          	j	3000344c <__addsf3+0x444>
30003318:	0ff00513          	li	a0,255
3000331c:	fea608e3          	beq	a2,a0,3000330c <__addsf3+0x304>
30003320:	04000537          	lui	a0,0x4000
30003324:	00a7e7b3          	or	a5,a5,a0
30003328:	00068513          	mv	a0,a3
3000332c:	01b00813          	li	a6,27
30003330:	00100693          	li	a3,1
30003334:	00a84e63          	blt	a6,a0,30003350 <__addsf3+0x348>
30003338:	02000693          	li	a3,32
3000333c:	40a686b3          	sub	a3,a3,a0
30003340:	00a7d833          	srl	a6,a5,a0
30003344:	00d797b3          	sll	a5,a5,a3
30003348:	00f037b3          	snez	a5,a5
3000334c:	00f866b3          	or	a3,a6,a5
30003350:	40d707b3          	sub	a5,a4,a3
30003354:	00060413          	mv	s0,a2
30003358:	00058913          	mv	s2,a1
3000335c:	f55ff06f          	j	300032b0 <__addsf3+0x2a8>
30003360:	00140693          	addi	a3,s0,1
30003364:	0fe6f693          	andi	a3,a3,254
30003368:	04069c63          	bnez	a3,300033c0 <__addsf3+0x3b8>
3000336c:	04041063          	bnez	s0,300033ac <__addsf3+0x3a4>
30003370:	00079a63          	bnez	a5,30003384 <__addsf3+0x37c>
30003374:	00070793          	mv	a5,a4
30003378:	0c071a63          	bnez	a4,3000344c <__addsf3+0x444>
3000337c:	00000493          	li	s1,0
30003380:	0240006f          	j	300033a4 <__addsf3+0x39c>
30003384:	d20708e3          	beqz	a4,300030b4 <__addsf3+0xac>
30003388:	40e784b3          	sub	s1,a5,a4
3000338c:	040006b7          	lui	a3,0x4000
30003390:	00d4f6b3          	and	a3,s1,a3
30003394:	40f707b3          	sub	a5,a4,a5
30003398:	0a069a63          	bnez	a3,3000344c <__addsf3+0x444>
3000339c:	00048793          	mv	a5,s1
300033a0:	d0049ae3          	bnez	s1,300030b4 <__addsf3+0xac>
300033a4:	00000913          	li	s2,0
300033a8:	d51ff06f          	j	300030f8 <__addsf3+0xf0>
300033ac:	e80794e3          	bnez	a5,30003234 <__addsf3+0x22c>
300033b0:	e80704e3          	beqz	a4,30003238 <__addsf3+0x230>
300033b4:	00070793          	mv	a5,a4
300033b8:	00058913          	mv	s2,a1
300033bc:	cd1ff06f          	j	3000308c <__addsf3+0x84>
300033c0:	40e784b3          	sub	s1,a5,a4
300033c4:	040006b7          	lui	a3,0x4000
300033c8:	00d4f6b3          	and	a3,s1,a3
300033cc:	04068463          	beqz	a3,30003414 <__addsf3+0x40c>
300033d0:	40f704b3          	sub	s1,a4,a5
300033d4:	00058913          	mv	s2,a1
300033d8:	00048513          	mv	a0,s1
300033dc:	331000ef          	jal	ra,30003f0c <__clzsi2>
300033e0:	ffb50513          	addi	a0,a0,-5 # 3fffffb <__stack_size+0x3ffeffb>
300033e4:	00a494b3          	sll	s1,s1,a0
300033e8:	02854c63          	blt	a0,s0,30003420 <__addsf3+0x418>
300033ec:	40850533          	sub	a0,a0,s0
300033f0:	00150513          	addi	a0,a0,1
300033f4:	02000713          	li	a4,32
300033f8:	40a70733          	sub	a4,a4,a0
300033fc:	00a4d7b3          	srl	a5,s1,a0
30003400:	00e494b3          	sll	s1,s1,a4
30003404:	009034b3          	snez	s1,s1
30003408:	0097e7b3          	or	a5,a5,s1
3000340c:	00000413          	li	s0,0
30003410:	ca5ff06f          	j	300030b4 <__addsf3+0xac>
30003414:	fc0492e3          	bnez	s1,300033d8 <__addsf3+0x3d0>
30003418:	00000413          	li	s0,0
3000341c:	f89ff06f          	j	300033a4 <__addsf3+0x39c>
30003420:	fc0007b7          	lui	a5,0xfc000
30003424:	fff78793          	addi	a5,a5,-1 # fbffffff <_sp+0xcbefffff>
30003428:	40a40433          	sub	s0,s0,a0
3000342c:	00f4f7b3          	and	a5,s1,a5
30003430:	c85ff06f          	j	300030b4 <__addsf3+0xac>
30003434:	00070793          	mv	a5,a4
30003438:	e21ff06f          	j	30003258 <__addsf3+0x250>
3000343c:	00070793          	mv	a5,a4
30003440:	c75ff06f          	j	300030b4 <__addsf3+0xac>
30003444:	00070793          	mv	a5,a4
30003448:	00068413          	mv	s0,a3
3000344c:	00058913          	mv	s2,a1
30003450:	c65ff06f          	j	300030b4 <__addsf3+0xac>
30003454:	0037d493          	srli	s1,a5,0x3
30003458:	0ff00793          	li	a5,255
3000345c:	c8f41ee3          	bne	s0,a5,300030f8 <__addsf3+0xf0>
30003460:	c8048ce3          	beqz	s1,300030f8 <__addsf3+0xf0>
30003464:	004004b7          	lui	s1,0x400
30003468:	f3dff06f          	j	300033a4 <__addsf3+0x39c>
3000346c:	0ff00413          	li	s0,255
30003470:	00000493          	li	s1,0
30003474:	c85ff06f          	j	300030f8 <__addsf3+0xf0>

30003478 <__divsf3>:
30003478:	fe010113          	addi	sp,sp,-32
3000347c:	00912a23          	sw	s1,20(sp)
30003480:	01755493          	srli	s1,a0,0x17
30003484:	01212823          	sw	s2,16(sp)
30003488:	01312623          	sw	s3,12(sp)
3000348c:	01412423          	sw	s4,8(sp)
30003490:	00951713          	slli	a4,a0,0x9
30003494:	00112e23          	sw	ra,28(sp)
30003498:	00812c23          	sw	s0,24(sp)
3000349c:	01512223          	sw	s5,4(sp)
300034a0:	0ff4f493          	zext.b	s1,s1
300034a4:	00058a13          	mv	s4,a1
300034a8:	00975993          	srli	s3,a4,0x9
300034ac:	01f55913          	srli	s2,a0,0x1f
300034b0:	08048463          	beqz	s1,30003538 <__divsf3+0xc0>
300034b4:	0ff00793          	li	a5,255
300034b8:	0af48063          	beq	s1,a5,30003558 <__divsf3+0xe0>
300034bc:	00399713          	slli	a4,s3,0x3
300034c0:	040007b7          	lui	a5,0x4000
300034c4:	00f769b3          	or	s3,a4,a5
300034c8:	f8148493          	addi	s1,s1,-127 # 3fff81 <__stack_size+0x3fef81>
300034cc:	00000a93          	li	s5,0
300034d0:	017a5793          	srli	a5,s4,0x17
300034d4:	009a1413          	slli	s0,s4,0x9
300034d8:	0ff7f793          	zext.b	a5,a5
300034dc:	00945413          	srli	s0,s0,0x9
300034e0:	01fa5a13          	srli	s4,s4,0x1f
300034e4:	08078a63          	beqz	a5,30003578 <__divsf3+0x100>
300034e8:	0ff00713          	li	a4,255
300034ec:	0ae78663          	beq	a5,a4,30003598 <__divsf3+0x120>
300034f0:	00341413          	slli	s0,s0,0x3
300034f4:	04000737          	lui	a4,0x4000
300034f8:	00e46433          	or	s0,s0,a4
300034fc:	f8178793          	addi	a5,a5,-127 # 3ffff81 <__stack_size+0x3ffef81>
30003500:	00000693          	li	a3,0
30003504:	40f484b3          	sub	s1,s1,a5
30003508:	002a9793          	slli	a5,s5,0x2
3000350c:	00d7e7b3          	or	a5,a5,a3
30003510:	fff78793          	addi	a5,a5,-1
30003514:	00e00713          	li	a4,14
30003518:	01494633          	xor	a2,s2,s4
3000351c:	0cf76663          	bltu	a4,a5,300035e8 <__divsf3+0x170>
30003520:	30007737          	lui	a4,0x30007
30003524:	00279793          	slli	a5,a5,0x2
30003528:	1a870713          	addi	a4,a4,424 # 300071a8 <_data+0x1a8>
3000352c:	00e787b3          	add	a5,a5,a4
30003530:	0007a783          	lw	a5,0(a5)
30003534:	00078067          	jr	a5
30003538:	02098a63          	beqz	s3,3000356c <__divsf3+0xf4>
3000353c:	00098513          	mv	a0,s3
30003540:	1cd000ef          	jal	ra,30003f0c <__clzsi2>
30003544:	ffb50793          	addi	a5,a0,-5
30003548:	f8a00493          	li	s1,-118
3000354c:	00f999b3          	sll	s3,s3,a5
30003550:	40a484b3          	sub	s1,s1,a0
30003554:	f79ff06f          	j	300034cc <__divsf3+0x54>
30003558:	0ff00493          	li	s1,255
3000355c:	00300a93          	li	s5,3
30003560:	f60998e3          	bnez	s3,300034d0 <__divsf3+0x58>
30003564:	00200a93          	li	s5,2
30003568:	f69ff06f          	j	300034d0 <__divsf3+0x58>
3000356c:	00000493          	li	s1,0
30003570:	00100a93          	li	s5,1
30003574:	f5dff06f          	j	300034d0 <__divsf3+0x58>
30003578:	02040a63          	beqz	s0,300035ac <__divsf3+0x134>
3000357c:	00040513          	mv	a0,s0
30003580:	18d000ef          	jal	ra,30003f0c <__clzsi2>
30003584:	ffb50793          	addi	a5,a0,-5
30003588:	00f41433          	sll	s0,s0,a5
3000358c:	f8a00793          	li	a5,-118
30003590:	40a787b3          	sub	a5,a5,a0
30003594:	f6dff06f          	j	30003500 <__divsf3+0x88>
30003598:	0ff00793          	li	a5,255
3000359c:	00300693          	li	a3,3
300035a0:	f60412e3          	bnez	s0,30003504 <__divsf3+0x8c>
300035a4:	00200693          	li	a3,2
300035a8:	f5dff06f          	j	30003504 <__divsf3+0x8c>
300035ac:	00000793          	li	a5,0
300035b0:	00100693          	li	a3,1
300035b4:	f51ff06f          	j	30003504 <__divsf3+0x8c>
300035b8:	00090613          	mv	a2,s2
300035bc:	00098413          	mv	s0,s3
300035c0:	000a8693          	mv	a3,s5
300035c4:	00200793          	li	a5,2
300035c8:	1cf68a63          	beq	a3,a5,3000379c <__divsf3+0x324>
300035cc:	00300793          	li	a5,3
300035d0:	1af68e63          	beq	a3,a5,3000378c <__divsf3+0x314>
300035d4:	00100793          	li	a5,1
300035d8:	0af69c63          	bne	a3,a5,30003690 <__divsf3+0x218>
300035dc:	00000793          	li	a5,0
300035e0:	00000713          	li	a4,0
300035e4:	0f40006f          	j	300036d8 <__divsf3+0x260>
300035e8:	00541593          	slli	a1,s0,0x5
300035ec:	1289f463          	bgeu	s3,s0,30003714 <__divsf3+0x29c>
300035f0:	fff48493          	addi	s1,s1,-1
300035f4:	00000793          	li	a5,0
300035f8:	0105d513          	srli	a0,a1,0x10
300035fc:	02a9d8b3          	divu	a7,s3,a0
30003600:	000106b7          	lui	a3,0x10
30003604:	fff68693          	addi	a3,a3,-1 # ffff <__stack_size+0xefff>
30003608:	00d5f6b3          	and	a3,a1,a3
3000360c:	0107d793          	srli	a5,a5,0x10
30003610:	02a9f733          	remu	a4,s3,a0
30003614:	00088413          	mv	s0,a7
30003618:	03168833          	mul	a6,a3,a7
3000361c:	01071713          	slli	a4,a4,0x10
30003620:	00e7e7b3          	or	a5,a5,a4
30003624:	0107fe63          	bgeu	a5,a6,30003640 <__divsf3+0x1c8>
30003628:	00f587b3          	add	a5,a1,a5
3000362c:	fff88413          	addi	s0,a7,-1
30003630:	00b7e863          	bltu	a5,a1,30003640 <__divsf3+0x1c8>
30003634:	0107f663          	bgeu	a5,a6,30003640 <__divsf3+0x1c8>
30003638:	ffe88413          	addi	s0,a7,-2
3000363c:	00b787b3          	add	a5,a5,a1
30003640:	410787b3          	sub	a5,a5,a6
30003644:	02a7d833          	divu	a6,a5,a0
30003648:	02a7f7b3          	remu	a5,a5,a0
3000364c:	03068733          	mul	a4,a3,a6
30003650:	01079793          	slli	a5,a5,0x10
30003654:	00080693          	mv	a3,a6
30003658:	02e7f263          	bgeu	a5,a4,3000367c <__divsf3+0x204>
3000365c:	00b78533          	add	a0,a5,a1
30003660:	00f538b3          	sltu	a7,a0,a5
30003664:	fff80693          	addi	a3,a6,-1
30003668:	00050793          	mv	a5,a0
3000366c:	00089863          	bnez	a7,3000367c <__divsf3+0x204>
30003670:	00e57663          	bgeu	a0,a4,3000367c <__divsf3+0x204>
30003674:	ffe80693          	addi	a3,a6,-2
30003678:	00b507b3          	add	a5,a0,a1
3000367c:	01041413          	slli	s0,s0,0x10
30003680:	40e787b3          	sub	a5,a5,a4
30003684:	00d46433          	or	s0,s0,a3
30003688:	00f037b3          	snez	a5,a5
3000368c:	00f46433          	or	s0,s0,a5
30003690:	07f48713          	addi	a4,s1,127
30003694:	08e05a63          	blez	a4,30003728 <__divsf3+0x2b0>
30003698:	00747793          	andi	a5,s0,7
3000369c:	00078a63          	beqz	a5,300036b0 <__divsf3+0x238>
300036a0:	00f47793          	andi	a5,s0,15
300036a4:	00400693          	li	a3,4
300036a8:	00d78463          	beq	a5,a3,300036b0 <__divsf3+0x238>
300036ac:	00440413          	addi	s0,s0,4
300036b0:	080007b7          	lui	a5,0x8000
300036b4:	00f477b3          	and	a5,s0,a5
300036b8:	00078a63          	beqz	a5,300036cc <__divsf3+0x254>
300036bc:	f80007b7          	lui	a5,0xf8000
300036c0:	fff78793          	addi	a5,a5,-1 # f7ffffff <_sp+0xc7efffff>
300036c4:	00f47433          	and	s0,s0,a5
300036c8:	08048713          	addi	a4,s1,128
300036cc:	0fe00793          	li	a5,254
300036d0:	0ce7c663          	blt	a5,a4,3000379c <__divsf3+0x324>
300036d4:	00345793          	srli	a5,s0,0x3
300036d8:	01c12083          	lw	ra,28(sp)
300036dc:	01812403          	lw	s0,24(sp)
300036e0:	00979793          	slli	a5,a5,0x9
300036e4:	01771713          	slli	a4,a4,0x17
300036e8:	0097d793          	srli	a5,a5,0x9
300036ec:	00f76733          	or	a4,a4,a5
300036f0:	01f61513          	slli	a0,a2,0x1f
300036f4:	01412483          	lw	s1,20(sp)
300036f8:	01012903          	lw	s2,16(sp)
300036fc:	00c12983          	lw	s3,12(sp)
30003700:	00812a03          	lw	s4,8(sp)
30003704:	00412a83          	lw	s5,4(sp)
30003708:	00a76533          	or	a0,a4,a0
3000370c:	02010113          	addi	sp,sp,32
30003710:	00008067          	ret
30003714:	01f99793          	slli	a5,s3,0x1f
30003718:	0019d993          	srli	s3,s3,0x1
3000371c:	eddff06f          	j	300035f8 <__divsf3+0x180>
30003720:	000a0613          	mv	a2,s4
30003724:	ea1ff06f          	j	300035c4 <__divsf3+0x14c>
30003728:	00100693          	li	a3,1
3000372c:	00070c63          	beqz	a4,30003744 <__divsf3+0x2cc>
30003730:	40e686b3          	sub	a3,a3,a4
30003734:	01b00593          	li	a1,27
30003738:	00000793          	li	a5,0
3000373c:	00000713          	li	a4,0
30003740:	f8d5cce3          	blt	a1,a3,300036d8 <__divsf3+0x260>
30003744:	09e48493          	addi	s1,s1,158
30003748:	00d456b3          	srl	a3,s0,a3
3000374c:	00941433          	sll	s0,s0,s1
30003750:	00803433          	snez	s0,s0
30003754:	0086e7b3          	or	a5,a3,s0
30003758:	0077f713          	andi	a4,a5,7
3000375c:	00070a63          	beqz	a4,30003770 <__divsf3+0x2f8>
30003760:	00f7f713          	andi	a4,a5,15
30003764:	00400693          	li	a3,4
30003768:	00d70463          	beq	a4,a3,30003770 <__divsf3+0x2f8>
3000376c:	00478793          	addi	a5,a5,4
30003770:	04000737          	lui	a4,0x4000
30003774:	00e7f733          	and	a4,a5,a4
30003778:	0037d793          	srli	a5,a5,0x3
3000377c:	f4070ee3          	beqz	a4,300036d8 <__divsf3+0x260>
30003780:	00000793          	li	a5,0
30003784:	00100713          	li	a4,1
30003788:	f51ff06f          	j	300036d8 <__divsf3+0x260>
3000378c:	004007b7          	lui	a5,0x400
30003790:	0ff00713          	li	a4,255
30003794:	00000613          	li	a2,0
30003798:	f41ff06f          	j	300036d8 <__divsf3+0x260>
3000379c:	00000793          	li	a5,0
300037a0:	0ff00713          	li	a4,255
300037a4:	f35ff06f          	j	300036d8 <__divsf3+0x260>

300037a8 <__gesf2>:
300037a8:	00800737          	lui	a4,0x800
300037ac:	fff70713          	addi	a4,a4,-1 # 7fffff <__stack_size+0x7fefff>
300037b0:	01755693          	srli	a3,a0,0x17
300037b4:	00a77633          	and	a2,a4,a0
300037b8:	01f55793          	srli	a5,a0,0x1f
300037bc:	0ff6f693          	zext.b	a3,a3
300037c0:	0175d513          	srli	a0,a1,0x17
300037c4:	0ff00813          	li	a6,255
300037c8:	00b77733          	and	a4,a4,a1
300037cc:	0ff57513          	zext.b	a0,a0
300037d0:	01f5d593          	srli	a1,a1,0x1f
300037d4:	03069863          	bne	a3,a6,30003804 <__gesf2+0x5c>
300037d8:	08061e63          	bnez	a2,30003874 <__gesf2+0xcc>
300037dc:	00d50a63          	beq	a0,a3,300037f0 <__gesf2+0x48>
300037e0:	00100513          	li	a0,1
300037e4:	06078c63          	beqz	a5,3000385c <__gesf2+0xb4>
300037e8:	fff00513          	li	a0,-1
300037ec:	00008067          	ret
300037f0:	ffe00513          	li	a0,-2
300037f4:	06071463          	bnez	a4,3000385c <__gesf2+0xb4>
300037f8:	feb794e3          	bne	a5,a1,300037e0 <__gesf2+0x38>
300037fc:	00000513          	li	a0,0
30003800:	00008067          	ret
30003804:	03051463          	bne	a0,a6,3000382c <__gesf2+0x84>
30003808:	ffe00513          	li	a0,-2
3000380c:	04071863          	bnez	a4,3000385c <__gesf2+0xb4>
30003810:	00069463          	bnez	a3,30003818 <__gesf2+0x70>
30003814:	04060863          	beqz	a2,30003864 <__gesf2+0xbc>
30003818:	fcb794e3          	bne	a5,a1,300037e0 <__gesf2+0x38>
3000381c:	fff00513          	li	a0,-1
30003820:	02078e63          	beqz	a5,3000385c <__gesf2+0xb4>
30003824:	00078513          	mv	a0,a5
30003828:	00008067          	ret
3000382c:	02068263          	beqz	a3,30003850 <__gesf2+0xa8>
30003830:	fa0508e3          	beqz	a0,300037e0 <__gesf2+0x38>
30003834:	fab796e3          	bne	a5,a1,300037e0 <__gesf2+0x38>
30003838:	fad544e3          	blt	a0,a3,300037e0 <__gesf2+0x38>
3000383c:	fea6c0e3          	blt	a3,a0,3000381c <__gesf2+0x74>
30003840:	fac760e3          	bltu	a4,a2,300037e0 <__gesf2+0x38>
30003844:	00000513          	li	a0,0
30003848:	00e67a63          	bgeu	a2,a4,3000385c <__gesf2+0xb4>
3000384c:	fd1ff06f          	j	3000381c <__gesf2+0x74>
30003850:	fc0512e3          	bnez	a0,30003814 <__gesf2+0x6c>
30003854:	00071663          	bnez	a4,30003860 <__gesf2+0xb8>
30003858:	f80614e3          	bnez	a2,300037e0 <__gesf2+0x38>
3000385c:	00008067          	ret
30003860:	00061e63          	bnez	a2,3000387c <__gesf2+0xd4>
30003864:	fff00513          	li	a0,-1
30003868:	fe058ae3          	beqz	a1,3000385c <__gesf2+0xb4>
3000386c:	00058513          	mv	a0,a1
30003870:	00008067          	ret
30003874:	ffe00513          	li	a0,-2
30003878:	00008067          	ret
3000387c:	fcb782e3          	beq	a5,a1,30003840 <__gesf2+0x98>
30003880:	f61ff06f          	j	300037e0 <__gesf2+0x38>

30003884 <__mulsf3>:
30003884:	fe010113          	addi	sp,sp,-32
30003888:	01212823          	sw	s2,16(sp)
3000388c:	01755913          	srli	s2,a0,0x17
30003890:	00912a23          	sw	s1,20(sp)
30003894:	01312623          	sw	s3,12(sp)
30003898:	01512223          	sw	s5,4(sp)
3000389c:	00951493          	slli	s1,a0,0x9
300038a0:	00112e23          	sw	ra,28(sp)
300038a4:	00812c23          	sw	s0,24(sp)
300038a8:	01412423          	sw	s4,8(sp)
300038ac:	0ff97913          	zext.b	s2,s2
300038b0:	00058a93          	mv	s5,a1
300038b4:	0094d493          	srli	s1,s1,0x9
300038b8:	01f55993          	srli	s3,a0,0x1f
300038bc:	18090663          	beqz	s2,30003a48 <__mulsf3+0x1c4>
300038c0:	0ff00793          	li	a5,255
300038c4:	1af90263          	beq	s2,a5,30003a68 <__mulsf3+0x1e4>
300038c8:	00349493          	slli	s1,s1,0x3
300038cc:	040007b7          	lui	a5,0x4000
300038d0:	00f4e4b3          	or	s1,s1,a5
300038d4:	f8190913          	addi	s2,s2,-127
300038d8:	00000a13          	li	s4,0
300038dc:	017ad793          	srli	a5,s5,0x17
300038e0:	009a9413          	slli	s0,s5,0x9
300038e4:	0ff7f793          	zext.b	a5,a5
300038e8:	00945413          	srli	s0,s0,0x9
300038ec:	01fada93          	srli	s5,s5,0x1f
300038f0:	18078c63          	beqz	a5,30003a88 <__mulsf3+0x204>
300038f4:	0ff00713          	li	a4,255
300038f8:	1ae78863          	beq	a5,a4,30003aa8 <__mulsf3+0x224>
300038fc:	00341413          	slli	s0,s0,0x3
30003900:	04000737          	lui	a4,0x4000
30003904:	00e46433          	or	s0,s0,a4
30003908:	f8178793          	addi	a5,a5,-127 # 3ffff81 <__stack_size+0x3ffef81>
3000390c:	00000713          	li	a4,0
30003910:	00f90933          	add	s2,s2,a5
30003914:	002a1793          	slli	a5,s4,0x2
30003918:	00e7e7b3          	or	a5,a5,a4
3000391c:	00a00693          	li	a3,10
30003920:	0159c533          	xor	a0,s3,s5
30003924:	00190613          	addi	a2,s2,1
30003928:	1ef6c463          	blt	a3,a5,30003b10 <__mulsf3+0x28c>
3000392c:	00200693          	li	a3,2
30003930:	18f6cc63          	blt	a3,a5,30003ac8 <__mulsf3+0x244>
30003934:	fff78793          	addi	a5,a5,-1
30003938:	00100693          	li	a3,1
3000393c:	1af6f863          	bgeu	a3,a5,30003aec <__mulsf3+0x268>
30003940:	000108b7          	lui	a7,0x10
30003944:	fff88813          	addi	a6,a7,-1 # ffff <__stack_size+0xefff>
30003948:	0104d713          	srli	a4,s1,0x10
3000394c:	01045793          	srli	a5,s0,0x10
30003950:	010476b3          	and	a3,s0,a6
30003954:	0104f4b3          	and	s1,s1,a6
30003958:	029685b3          	mul	a1,a3,s1
3000395c:	02d706b3          	mul	a3,a4,a3
30003960:	0105d413          	srli	s0,a1,0x10
30003964:	02f70733          	mul	a4,a4,a5
30003968:	029787b3          	mul	a5,a5,s1
3000396c:	00d787b3          	add	a5,a5,a3
30003970:	00f40433          	add	s0,s0,a5
30003974:	00d47463          	bgeu	s0,a3,3000397c <__mulsf3+0xf8>
30003978:	01170733          	add	a4,a4,a7
3000397c:	010477b3          	and	a5,s0,a6
30003980:	01079793          	slli	a5,a5,0x10
30003984:	0105f5b3          	and	a1,a1,a6
30003988:	00b787b3          	add	a5,a5,a1
3000398c:	00679693          	slli	a3,a5,0x6
30003990:	01045413          	srli	s0,s0,0x10
30003994:	00d036b3          	snez	a3,a3
30003998:	01a7d793          	srli	a5,a5,0x1a
3000399c:	00e40433          	add	s0,s0,a4
300039a0:	00f6e7b3          	or	a5,a3,a5
300039a4:	00641413          	slli	s0,s0,0x6
300039a8:	00f46433          	or	s0,s0,a5
300039ac:	080007b7          	lui	a5,0x8000
300039b0:	00f477b3          	and	a5,s0,a5
300039b4:	16078e63          	beqz	a5,30003b30 <__mulsf3+0x2ac>
300039b8:	00145793          	srli	a5,s0,0x1
300039bc:	00147413          	andi	s0,s0,1
300039c0:	0087e433          	or	s0,a5,s0
300039c4:	07f60713          	addi	a4,a2,127 # 400007f <__stack_size+0x3fff07f>
300039c8:	16e05863          	blez	a4,30003b38 <__mulsf3+0x2b4>
300039cc:	00747793          	andi	a5,s0,7
300039d0:	00078a63          	beqz	a5,300039e4 <__mulsf3+0x160>
300039d4:	00f47793          	andi	a5,s0,15
300039d8:	00400693          	li	a3,4
300039dc:	00d78463          	beq	a5,a3,300039e4 <__mulsf3+0x160>
300039e0:	00440413          	addi	s0,s0,4
300039e4:	080007b7          	lui	a5,0x8000
300039e8:	00f477b3          	and	a5,s0,a5
300039ec:	00078a63          	beqz	a5,30003a00 <__mulsf3+0x17c>
300039f0:	f80007b7          	lui	a5,0xf8000
300039f4:	fff78793          	addi	a5,a5,-1 # f7ffffff <_sp+0xc7efffff>
300039f8:	00f47433          	and	s0,s0,a5
300039fc:	08060713          	addi	a4,a2,128
30003a00:	0fe00793          	li	a5,254
30003a04:	1ae7c463          	blt	a5,a4,30003bac <__mulsf3+0x328>
30003a08:	00345793          	srli	a5,s0,0x3
30003a0c:	01c12083          	lw	ra,28(sp)
30003a10:	01812403          	lw	s0,24(sp)
30003a14:	00979793          	slli	a5,a5,0x9
30003a18:	01771713          	slli	a4,a4,0x17
30003a1c:	0097d793          	srli	a5,a5,0x9
30003a20:	00f76733          	or	a4,a4,a5
30003a24:	01f51513          	slli	a0,a0,0x1f
30003a28:	01412483          	lw	s1,20(sp)
30003a2c:	01012903          	lw	s2,16(sp)
30003a30:	00c12983          	lw	s3,12(sp)
30003a34:	00812a03          	lw	s4,8(sp)
30003a38:	00412a83          	lw	s5,4(sp)
30003a3c:	00a76533          	or	a0,a4,a0
30003a40:	02010113          	addi	sp,sp,32
30003a44:	00008067          	ret
30003a48:	02048a63          	beqz	s1,30003a7c <__mulsf3+0x1f8>
30003a4c:	00048513          	mv	a0,s1
30003a50:	4bc000ef          	jal	ra,30003f0c <__clzsi2>
30003a54:	ffb50793          	addi	a5,a0,-5
30003a58:	f8a00913          	li	s2,-118
30003a5c:	00f494b3          	sll	s1,s1,a5
30003a60:	40a90933          	sub	s2,s2,a0
30003a64:	e75ff06f          	j	300038d8 <__mulsf3+0x54>
30003a68:	0ff00913          	li	s2,255
30003a6c:	00300a13          	li	s4,3
30003a70:	e60496e3          	bnez	s1,300038dc <__mulsf3+0x58>
30003a74:	00200a13          	li	s4,2
30003a78:	e65ff06f          	j	300038dc <__mulsf3+0x58>
30003a7c:	00000913          	li	s2,0
30003a80:	00100a13          	li	s4,1
30003a84:	e59ff06f          	j	300038dc <__mulsf3+0x58>
30003a88:	02040a63          	beqz	s0,30003abc <__mulsf3+0x238>
30003a8c:	00040513          	mv	a0,s0
30003a90:	47c000ef          	jal	ra,30003f0c <__clzsi2>
30003a94:	ffb50793          	addi	a5,a0,-5
30003a98:	00f41433          	sll	s0,s0,a5
30003a9c:	f8a00793          	li	a5,-118
30003aa0:	40a787b3          	sub	a5,a5,a0
30003aa4:	e69ff06f          	j	3000390c <__mulsf3+0x88>
30003aa8:	0ff00793          	li	a5,255
30003aac:	00300713          	li	a4,3
30003ab0:	e60410e3          	bnez	s0,30003910 <__mulsf3+0x8c>
30003ab4:	00200713          	li	a4,2
30003ab8:	e59ff06f          	j	30003910 <__mulsf3+0x8c>
30003abc:	00000793          	li	a5,0
30003ac0:	00100713          	li	a4,1
30003ac4:	e4dff06f          	j	30003910 <__mulsf3+0x8c>
30003ac8:	00100693          	li	a3,1
30003acc:	00f697b3          	sll	a5,a3,a5
30003ad0:	5307f693          	andi	a3,a5,1328
30003ad4:	04069863          	bnez	a3,30003b24 <__mulsf3+0x2a0>
30003ad8:	2407f693          	andi	a3,a5,576
30003adc:	0c069063          	bnez	a3,30003b9c <__mulsf3+0x318>
30003ae0:	0887f793          	andi	a5,a5,136
30003ae4:	e4078ee3          	beqz	a5,30003940 <__mulsf3+0xbc>
30003ae8:	000a8513          	mv	a0,s5
30003aec:	00200793          	li	a5,2
30003af0:	0af70e63          	beq	a4,a5,30003bac <__mulsf3+0x328>
30003af4:	00300793          	li	a5,3
30003af8:	0af70263          	beq	a4,a5,30003b9c <__mulsf3+0x318>
30003afc:	00100793          	li	a5,1
30003b00:	ecf712e3          	bne	a4,a5,300039c4 <__mulsf3+0x140>
30003b04:	00000793          	li	a5,0
30003b08:	00000713          	li	a4,0
30003b0c:	f01ff06f          	j	30003a0c <__mulsf3+0x188>
30003b10:	00f00693          	li	a3,15
30003b14:	08d78463          	beq	a5,a3,30003b9c <__mulsf3+0x318>
30003b18:	00b00693          	li	a3,11
30003b1c:	00098513          	mv	a0,s3
30003b20:	fcd784e3          	beq	a5,a3,30003ae8 <__mulsf3+0x264>
30003b24:	00048413          	mv	s0,s1
30003b28:	000a0713          	mv	a4,s4
30003b2c:	fc1ff06f          	j	30003aec <__mulsf3+0x268>
30003b30:	00090613          	mv	a2,s2
30003b34:	e91ff06f          	j	300039c4 <__mulsf3+0x140>
30003b38:	00100693          	li	a3,1
30003b3c:	00070c63          	beqz	a4,30003b54 <__mulsf3+0x2d0>
30003b40:	40e686b3          	sub	a3,a3,a4
30003b44:	01b00593          	li	a1,27
30003b48:	00000793          	li	a5,0
30003b4c:	00000713          	li	a4,0
30003b50:	ead5cee3          	blt	a1,a3,30003a0c <__mulsf3+0x188>
30003b54:	09e60613          	addi	a2,a2,158
30003b58:	00d456b3          	srl	a3,s0,a3
30003b5c:	00c41433          	sll	s0,s0,a2
30003b60:	00803433          	snez	s0,s0
30003b64:	0086e7b3          	or	a5,a3,s0
30003b68:	0077f713          	andi	a4,a5,7
30003b6c:	00070a63          	beqz	a4,30003b80 <__mulsf3+0x2fc>
30003b70:	00f7f713          	andi	a4,a5,15
30003b74:	00400693          	li	a3,4
30003b78:	00d70463          	beq	a4,a3,30003b80 <__mulsf3+0x2fc>
30003b7c:	00478793          	addi	a5,a5,4
30003b80:	04000737          	lui	a4,0x4000
30003b84:	00e7f733          	and	a4,a5,a4
30003b88:	0037d793          	srli	a5,a5,0x3
30003b8c:	e80700e3          	beqz	a4,30003a0c <__mulsf3+0x188>
30003b90:	00000793          	li	a5,0
30003b94:	00100713          	li	a4,1
30003b98:	e75ff06f          	j	30003a0c <__mulsf3+0x188>
30003b9c:	004007b7          	lui	a5,0x400
30003ba0:	0ff00713          	li	a4,255
30003ba4:	00000513          	li	a0,0
30003ba8:	e65ff06f          	j	30003a0c <__mulsf3+0x188>
30003bac:	00000793          	li	a5,0
30003bb0:	0ff00713          	li	a4,255
30003bb4:	e59ff06f          	j	30003a0c <__mulsf3+0x188>

30003bb8 <__floatunsisf>:
30003bb8:	ff010113          	addi	sp,sp,-16
30003bbc:	00812423          	sw	s0,8(sp)
30003bc0:	00112623          	sw	ra,12(sp)
30003bc4:	00050413          	mv	s0,a0
30003bc8:	00000793          	li	a5,0
30003bcc:	02050463          	beqz	a0,30003bf4 <__floatunsisf+0x3c>
30003bd0:	33c000ef          	jal	ra,30003f0c <__clzsi2>
30003bd4:	09e00793          	li	a5,158
30003bd8:	40a787b3          	sub	a5,a5,a0
30003bdc:	09600713          	li	a4,150
30003be0:	02f74a63          	blt	a4,a5,30003c14 <__floatunsisf+0x5c>
30003be4:	00800713          	li	a4,8
30003be8:	0ae50863          	beq	a0,a4,30003c98 <__floatunsisf+0xe0>
30003bec:	ff850513          	addi	a0,a0,-8
30003bf0:	00a41433          	sll	s0,s0,a0
30003bf4:	00941413          	slli	s0,s0,0x9
30003bf8:	00945413          	srli	s0,s0,0x9
30003bfc:	01779513          	slli	a0,a5,0x17
30003c00:	00c12083          	lw	ra,12(sp)
30003c04:	00856533          	or	a0,a0,s0
30003c08:	00812403          	lw	s0,8(sp)
30003c0c:	01010113          	addi	sp,sp,16
30003c10:	00008067          	ret
30003c14:	09900713          	li	a4,153
30003c18:	06f75663          	bge	a4,a5,30003c84 <__floatunsisf+0xcc>
30003c1c:	01b50713          	addi	a4,a0,27
30003c20:	00500693          	li	a3,5
30003c24:	00e41733          	sll	a4,s0,a4
30003c28:	40a686b3          	sub	a3,a3,a0
30003c2c:	00e03733          	snez	a4,a4
30003c30:	00d45433          	srl	s0,s0,a3
30003c34:	00876433          	or	s0,a4,s0
30003c38:	fc000737          	lui	a4,0xfc000
30003c3c:	fff70713          	addi	a4,a4,-1 # fbffffff <_sp+0xcbefffff>
30003c40:	00747693          	andi	a3,s0,7
30003c44:	00e47733          	and	a4,s0,a4
30003c48:	00068a63          	beqz	a3,30003c5c <__floatunsisf+0xa4>
30003c4c:	00f47413          	andi	s0,s0,15
30003c50:	00400693          	li	a3,4
30003c54:	00d40463          	beq	s0,a3,30003c5c <__floatunsisf+0xa4>
30003c58:	00470713          	addi	a4,a4,4
30003c5c:	040006b7          	lui	a3,0x4000
30003c60:	00d776b3          	and	a3,a4,a3
30003c64:	00068c63          	beqz	a3,30003c7c <__floatunsisf+0xc4>
30003c68:	fc0007b7          	lui	a5,0xfc000
30003c6c:	fff78793          	addi	a5,a5,-1 # fbffffff <_sp+0xcbefffff>
30003c70:	00f77733          	and	a4,a4,a5
30003c74:	09f00793          	li	a5,159
30003c78:	40a787b3          	sub	a5,a5,a0
30003c7c:	00375413          	srli	s0,a4,0x3
30003c80:	f75ff06f          	j	30003bf4 <__floatunsisf+0x3c>
30003c84:	00500693          	li	a3,5
30003c88:	ffb50713          	addi	a4,a0,-5
30003c8c:	fad506e3          	beq	a0,a3,30003c38 <__floatunsisf+0x80>
30003c90:	00e41433          	sll	s0,s0,a4
30003c94:	fa5ff06f          	j	30003c38 <__floatunsisf+0x80>
30003c98:	09600793          	li	a5,150
30003c9c:	f59ff06f          	j	30003bf4 <__floatunsisf+0x3c>

30003ca0 <__extendsfdf2>:
30003ca0:	01755713          	srli	a4,a0,0x17
30003ca4:	0ff77713          	zext.b	a4,a4
30003ca8:	ff010113          	addi	sp,sp,-16
30003cac:	00170793          	addi	a5,a4,1
30003cb0:	00812423          	sw	s0,8(sp)
30003cb4:	00912223          	sw	s1,4(sp)
30003cb8:	00951413          	slli	s0,a0,0x9
30003cbc:	00112623          	sw	ra,12(sp)
30003cc0:	0fe7f793          	andi	a5,a5,254
30003cc4:	00945413          	srli	s0,s0,0x9
30003cc8:	01f55493          	srli	s1,a0,0x1f
30003ccc:	04078263          	beqz	a5,30003d10 <__extendsfdf2+0x70>
30003cd0:	00345793          	srli	a5,s0,0x3
30003cd4:	38070713          	addi	a4,a4,896
30003cd8:	01d41413          	slli	s0,s0,0x1d
30003cdc:	00c79793          	slli	a5,a5,0xc
30003ce0:	00c7d793          	srli	a5,a5,0xc
30003ce4:	01471713          	slli	a4,a4,0x14
30003ce8:	01f49513          	slli	a0,s1,0x1f
30003cec:	00f76733          	or	a4,a4,a5
30003cf0:	00c12083          	lw	ra,12(sp)
30003cf4:	00a767b3          	or	a5,a4,a0
30003cf8:	00040513          	mv	a0,s0
30003cfc:	00812403          	lw	s0,8(sp)
30003d00:	00412483          	lw	s1,4(sp)
30003d04:	00078593          	mv	a1,a5
30003d08:	01010113          	addi	sp,sp,16
30003d0c:	00008067          	ret
30003d10:	04071663          	bnez	a4,30003d5c <__extendsfdf2+0xbc>
30003d14:	00000793          	li	a5,0
30003d18:	fc0402e3          	beqz	s0,30003cdc <__extendsfdf2+0x3c>
30003d1c:	00040513          	mv	a0,s0
30003d20:	1ec000ef          	jal	ra,30003f0c <__clzsi2>
30003d24:	00a00793          	li	a5,10
30003d28:	02a7c263          	blt	a5,a0,30003d4c <__extendsfdf2+0xac>
30003d2c:	00b00793          	li	a5,11
30003d30:	40a787b3          	sub	a5,a5,a0
30003d34:	01550713          	addi	a4,a0,21
30003d38:	00f457b3          	srl	a5,s0,a5
30003d3c:	00e41433          	sll	s0,s0,a4
30003d40:	38900713          	li	a4,905
30003d44:	40a70733          	sub	a4,a4,a0
30003d48:	f95ff06f          	j	30003cdc <__extendsfdf2+0x3c>
30003d4c:	ff550793          	addi	a5,a0,-11
30003d50:	00f417b3          	sll	a5,s0,a5
30003d54:	00000413          	li	s0,0
30003d58:	fe9ff06f          	j	30003d40 <__extendsfdf2+0xa0>
30003d5c:	00000793          	li	a5,0
30003d60:	00040a63          	beqz	s0,30003d74 <__extendsfdf2+0xd4>
30003d64:	00345793          	srli	a5,s0,0x3
30003d68:	00080737          	lui	a4,0x80
30003d6c:	01d41413          	slli	s0,s0,0x1d
30003d70:	00e7e7b3          	or	a5,a5,a4
30003d74:	7ff00713          	li	a4,2047
30003d78:	f65ff06f          	j	30003cdc <__extendsfdf2+0x3c>

30003d7c <__truncdfsf2>:
30003d7c:	00c59713          	slli	a4,a1,0xc
30003d80:	0145d813          	srli	a6,a1,0x14
30003d84:	00975713          	srli	a4,a4,0x9
30003d88:	7ff87813          	andi	a6,a6,2047
30003d8c:	01d55793          	srli	a5,a0,0x1d
30003d90:	00e7e7b3          	or	a5,a5,a4
30003d94:	00180713          	addi	a4,a6,1
30003d98:	7fe77713          	andi	a4,a4,2046
30003d9c:	01f5d593          	srli	a1,a1,0x1f
30003da0:	00351613          	slli	a2,a0,0x3
30003da4:	0e070063          	beqz	a4,30003e84 <__truncdfsf2+0x108>
30003da8:	c8080693          	addi	a3,a6,-896
30003dac:	0fe00713          	li	a4,254
30003db0:	14d74663          	blt	a4,a3,30003efc <__truncdfsf2+0x180>
30003db4:	0ad04463          	bgtz	a3,30003e5c <__truncdfsf2+0xe0>
30003db8:	fe900713          	li	a4,-23
30003dbc:	14e6c463          	blt	a3,a4,30003f04 <__truncdfsf2+0x188>
30003dc0:	00800537          	lui	a0,0x800
30003dc4:	01e00713          	li	a4,30
30003dc8:	00a7e533          	or	a0,a5,a0
30003dcc:	40d70733          	sub	a4,a4,a3
30003dd0:	01f00793          	li	a5,31
30003dd4:	04e7c663          	blt	a5,a4,30003e20 <__truncdfsf2+0xa4>
30003dd8:	c8280813          	addi	a6,a6,-894
30003ddc:	00e65733          	srl	a4,a2,a4
30003de0:	01061633          	sll	a2,a2,a6
30003de4:	00c03633          	snez	a2,a2
30003de8:	01051533          	sll	a0,a0,a6
30003dec:	00a66633          	or	a2,a2,a0
30003df0:	00c76733          	or	a4,a4,a2
30003df4:	00777793          	andi	a5,a4,7
30003df8:	0a079663          	bnez	a5,30003ea4 <__truncdfsf2+0x128>
30003dfc:	00375793          	srli	a5,a4,0x3
30003e00:	00000693          	li	a3,0
30003e04:	00979793          	slli	a5,a5,0x9
30003e08:	0097d793          	srli	a5,a5,0x9
30003e0c:	01769693          	slli	a3,a3,0x17
30003e10:	00f6e6b3          	or	a3,a3,a5
30003e14:	01f59513          	slli	a0,a1,0x1f
30003e18:	00a6e533          	or	a0,a3,a0
30003e1c:	00008067          	ret
30003e20:	ffe00793          	li	a5,-2
30003e24:	40d787b3          	sub	a5,a5,a3
30003e28:	02000893          	li	a7,32
30003e2c:	00f557b3          	srl	a5,a0,a5
30003e30:	00000693          	li	a3,0
30003e34:	01170663          	beq	a4,a7,30003e40 <__truncdfsf2+0xc4>
30003e38:	ca280813          	addi	a6,a6,-862
30003e3c:	010516b3          	sll	a3,a0,a6
30003e40:	00c6e6b3          	or	a3,a3,a2
30003e44:	00d036b3          	snez	a3,a3
30003e48:	00d7e7b3          	or	a5,a5,a3
30003e4c:	0077f713          	andi	a4,a5,7
30003e50:	06071463          	bnez	a4,30003eb8 <__truncdfsf2+0x13c>
30003e54:	0037d793          	srli	a5,a5,0x3
30003e58:	fa9ff06f          	j	30003e00 <__truncdfsf2+0x84>
30003e5c:	00651713          	slli	a4,a0,0x6
30003e60:	00379793          	slli	a5,a5,0x3
30003e64:	00e03733          	snez	a4,a4
30003e68:	00f76733          	or	a4,a4,a5
30003e6c:	01d65613          	srli	a2,a2,0x1d
30003e70:	00c76733          	or	a4,a4,a2
30003e74:	00777793          	andi	a5,a4,7
30003e78:	04079a63          	bnez	a5,30003ecc <__truncdfsf2+0x150>
30003e7c:	00375793          	srli	a5,a4,0x3
30003e80:	f85ff06f          	j	30003e04 <__truncdfsf2+0x88>
30003e84:	08080063          	beqz	a6,30003f04 <__truncdfsf2+0x188>
30003e88:	00c7e7b3          	or	a5,a5,a2
30003e8c:	0ff00693          	li	a3,255
30003e90:	f6078ae3          	beqz	a5,30003e04 <__truncdfsf2+0x88>
30003e94:	00000593          	li	a1,0
30003e98:	0ff00693          	li	a3,255
30003e9c:	004007b7          	lui	a5,0x400
30003ea0:	f65ff06f          	j	30003e04 <__truncdfsf2+0x88>
30003ea4:	00f77793          	andi	a5,a4,15
30003ea8:	00400693          	li	a3,4
30003eac:	f4d788e3          	beq	a5,a3,30003dfc <__truncdfsf2+0x80>
30003eb0:	00000693          	li	a3,0
30003eb4:	0280006f          	j	30003edc <__truncdfsf2+0x160>
30003eb8:	00f7f713          	andi	a4,a5,15
30003ebc:	00400693          	li	a3,4
30003ec0:	f8d70ae3          	beq	a4,a3,30003e54 <__truncdfsf2+0xd8>
30003ec4:	00478793          	addi	a5,a5,4 # 400004 <__stack_size+0x3ff004>
30003ec8:	f8dff06f          	j	30003e54 <__truncdfsf2+0xd8>
30003ecc:	00f77613          	andi	a2,a4,15
30003ed0:	00400513          	li	a0,4
30003ed4:	00375793          	srli	a5,a4,0x3
30003ed8:	f2a606e3          	beq	a2,a0,30003e04 <__truncdfsf2+0x88>
30003edc:	00470713          	addi	a4,a4,4 # 80004 <__stack_size+0x7f004>
30003ee0:	04000637          	lui	a2,0x4000
30003ee4:	00c77633          	and	a2,a4,a2
30003ee8:	00375793          	srli	a5,a4,0x3
30003eec:	f0060ce3          	beqz	a2,30003e04 <__truncdfsf2+0x88>
30003ef0:	00168693          	addi	a3,a3,1 # 4000001 <__stack_size+0x3fff001>
30003ef4:	00000793          	li	a5,0
30003ef8:	f0dff06f          	j	30003e04 <__truncdfsf2+0x88>
30003efc:	0ff00693          	li	a3,255
30003f00:	ff5ff06f          	j	30003ef4 <__truncdfsf2+0x178>
30003f04:	00000693          	li	a3,0
30003f08:	fedff06f          	j	30003ef4 <__truncdfsf2+0x178>

30003f0c <__clzsi2>:
30003f0c:	000107b7          	lui	a5,0x10
30003f10:	02f57a63          	bgeu	a0,a5,30003f44 <__clzsi2+0x38>
30003f14:	10053793          	sltiu	a5,a0,256
30003f18:	0017c793          	xori	a5,a5,1
30003f1c:	00379793          	slli	a5,a5,0x3
30003f20:	30007737          	lui	a4,0x30007
30003f24:	02000693          	li	a3,32
30003f28:	40f686b3          	sub	a3,a3,a5
30003f2c:	00f55533          	srl	a0,a0,a5
30003f30:	1e470793          	addi	a5,a4,484 # 300071e4 <__clz_tab>
30003f34:	00a787b3          	add	a5,a5,a0
30003f38:	0007c503          	lbu	a0,0(a5) # 10000 <__stack_size+0xf000>
30003f3c:	40a68533          	sub	a0,a3,a0
30003f40:	00008067          	ret
30003f44:	01000737          	lui	a4,0x1000
30003f48:	01000793          	li	a5,16
30003f4c:	fce56ae3          	bltu	a0,a4,30003f20 <__clzsi2+0x14>
30003f50:	01800793          	li	a5,24
30003f54:	fcdff06f          	j	30003f20 <__clzsi2+0x14>

30003f58 <atexit>:
30003f58:	00050593          	mv	a1,a0
30003f5c:	00000693          	li	a3,0
30003f60:	00000613          	li	a2,0
30003f64:	00000513          	li	a0,0
30003f68:	55c0006f          	j	300044c4 <__register_exitproc>

30003f6c <exit>:
30003f6c:	ff010113          	addi	sp,sp,-16
30003f70:	00000593          	li	a1,0
30003f74:	00812423          	sw	s0,8(sp)
30003f78:	00112623          	sw	ra,12(sp)
30003f7c:	00050413          	mv	s0,a0
30003f80:	5dc000ef          	jal	ra,3000455c <__call_exitprocs>
30003f84:	8101a503          	lw	a0,-2032(gp) # 30007b28 <_global_impure_ptr>
30003f88:	03c52783          	lw	a5,60(a0) # 80003c <__stack_size+0x7ff03c>
30003f8c:	00078463          	beqz	a5,30003f94 <exit+0x28>
30003f90:	000780e7          	jalr	a5
30003f94:	00040513          	mv	a0,s0
30003f98:	548020ef          	jal	ra,300064e0 <_exit>

30003f9c <__libc_fini_array>:
30003f9c:	ff010113          	addi	sp,sp,-16
30003fa0:	00812423          	sw	s0,8(sp)
30003fa4:	300067b7          	lui	a5,0x30006
30003fa8:	30006437          	lui	s0,0x30006
30003fac:	7ac78793          	addi	a5,a5,1964 # 300067ac <__fini_array_end>
30003fb0:	7ac40413          	addi	s0,s0,1964 # 300067ac <__fini_array_end>
30003fb4:	40f40433          	sub	s0,s0,a5
30003fb8:	00912223          	sw	s1,4(sp)
30003fbc:	00112623          	sw	ra,12(sp)
30003fc0:	40245493          	srai	s1,s0,0x2
30003fc4:	02048063          	beqz	s1,30003fe4 <__libc_fini_array+0x48>
30003fc8:	ffc40413          	addi	s0,s0,-4
30003fcc:	00f40433          	add	s0,s0,a5
30003fd0:	00042783          	lw	a5,0(s0)
30003fd4:	fff48493          	addi	s1,s1,-1
30003fd8:	ffc40413          	addi	s0,s0,-4
30003fdc:	000780e7          	jalr	a5
30003fe0:	fe0498e3          	bnez	s1,30003fd0 <__libc_fini_array+0x34>
30003fe4:	00c12083          	lw	ra,12(sp)
30003fe8:	00812403          	lw	s0,8(sp)
30003fec:	00412483          	lw	s1,4(sp)
30003ff0:	01010113          	addi	sp,sp,16
30003ff4:	00008067          	ret

30003ff8 <__libc_init_array>:
30003ff8:	ff010113          	addi	sp,sp,-16
30003ffc:	00812423          	sw	s0,8(sp)
30004000:	300067b7          	lui	a5,0x30006
30004004:	30006437          	lui	s0,0x30006
30004008:	01212023          	sw	s2,0(sp)
3000400c:	7a878793          	addi	a5,a5,1960 # 300067a8 <_eitcm>
30004010:	7a840713          	addi	a4,s0,1960 # 300067a8 <_eitcm>
30004014:	00112623          	sw	ra,12(sp)
30004018:	00912223          	sw	s1,4(sp)
3000401c:	40e78933          	sub	s2,a5,a4
30004020:	02e78263          	beq	a5,a4,30004044 <__libc_init_array+0x4c>
30004024:	40295913          	srai	s2,s2,0x2
30004028:	7a840413          	addi	s0,s0,1960
3000402c:	00000493          	li	s1,0
30004030:	00042783          	lw	a5,0(s0)
30004034:	00148493          	addi	s1,s1,1
30004038:	00440413          	addi	s0,s0,4
3000403c:	000780e7          	jalr	a5
30004040:	ff24e8e3          	bltu	s1,s2,30004030 <__libc_init_array+0x38>
30004044:	30006437          	lui	s0,0x30006
30004048:	300067b7          	lui	a5,0x30006
3000404c:	7ac78793          	addi	a5,a5,1964 # 300067ac <__fini_array_end>
30004050:	7a840713          	addi	a4,s0,1960 # 300067a8 <_eitcm>
30004054:	40e78933          	sub	s2,a5,a4
30004058:	40295913          	srai	s2,s2,0x2
3000405c:	02e78063          	beq	a5,a4,3000407c <__libc_init_array+0x84>
30004060:	7a840413          	addi	s0,s0,1960
30004064:	00000493          	li	s1,0
30004068:	00042783          	lw	a5,0(s0)
3000406c:	00148493          	addi	s1,s1,1
30004070:	00440413          	addi	s0,s0,4
30004074:	000780e7          	jalr	a5
30004078:	ff24e8e3          	bltu	s1,s2,30004068 <__libc_init_array+0x70>
3000407c:	00c12083          	lw	ra,12(sp)
30004080:	00812403          	lw	s0,8(sp)
30004084:	00412483          	lw	s1,4(sp)
30004088:	00012903          	lw	s2,0(sp)
3000408c:	01010113          	addi	sp,sp,16
30004090:	00008067          	ret

30004094 <_putchar_r>:
30004094:	00852603          	lw	a2,8(a0)
30004098:	01c0006f          	j	300040b4 <_putc_r>

3000409c <putchar>:
3000409c:	300087b7          	lui	a5,0x30008
300040a0:	b1c7a783          	lw	a5,-1252(a5) # 30007b1c <_impure_ptr>
300040a4:	00050593          	mv	a1,a0
300040a8:	0087a603          	lw	a2,8(a5)
300040ac:	00078513          	mv	a0,a5
300040b0:	0040006f          	j	300040b4 <_putc_r>

300040b4 <_putc_r>:
300040b4:	fe010113          	addi	sp,sp,-32
300040b8:	01212c23          	sw	s2,24(sp)
300040bc:	00112e23          	sw	ra,28(sp)
300040c0:	00050913          	mv	s2,a0
300040c4:	00050663          	beqz	a0,300040d0 <_putc_r+0x1c>
300040c8:	03852783          	lw	a5,56(a0)
300040cc:	04078663          	beqz	a5,30004118 <_putc_r+0x64>
300040d0:	00862783          	lw	a5,8(a2) # 4000008 <__stack_size+0x3fff008>
300040d4:	fff78793          	addi	a5,a5,-1
300040d8:	00f62423          	sw	a5,8(a2)
300040dc:	0007dc63          	bgez	a5,300040f4 <_putc_r+0x40>
300040e0:	01862703          	lw	a4,24(a2)
300040e4:	04e7c663          	blt	a5,a4,30004130 <_putc_r+0x7c>
300040e8:	0ff5f793          	zext.b	a5,a1
300040ec:	00a00713          	li	a4,10
300040f0:	04e78063          	beq	a5,a4,30004130 <_putc_r+0x7c>
300040f4:	00062783          	lw	a5,0(a2)
300040f8:	0ff5f513          	zext.b	a0,a1
300040fc:	00178713          	addi	a4,a5,1
30004100:	00e62023          	sw	a4,0(a2)
30004104:	00b78023          	sb	a1,0(a5)
30004108:	01c12083          	lw	ra,28(sp)
3000410c:	01812903          	lw	s2,24(sp)
30004110:	02010113          	addi	sp,sp,32
30004114:	00008067          	ret
30004118:	00c12623          	sw	a2,12(sp)
3000411c:	00b12423          	sw	a1,8(sp)
30004120:	3d1000ef          	jal	ra,30004cf0 <__sinit>
30004124:	00c12603          	lw	a2,12(sp)
30004128:	00812583          	lw	a1,8(sp)
3000412c:	fa5ff06f          	j	300040d0 <_putc_r+0x1c>
30004130:	01c12083          	lw	ra,28(sp)
30004134:	00090513          	mv	a0,s2
30004138:	01812903          	lw	s2,24(sp)
3000413c:	02010113          	addi	sp,sp,32
30004140:	0b40006f          	j	300041f4 <__swbuf_r>

30004144 <putc>:
30004144:	ff010113          	addi	sp,sp,-16
30004148:	300087b7          	lui	a5,0x30008
3000414c:	01212023          	sw	s2,0(sp)
30004150:	b1c7a903          	lw	s2,-1252(a5) # 30007b1c <_impure_ptr>
30004154:	00812423          	sw	s0,8(sp)
30004158:	00912223          	sw	s1,4(sp)
3000415c:	00112623          	sw	ra,12(sp)
30004160:	00050493          	mv	s1,a0
30004164:	00058413          	mv	s0,a1
30004168:	00090663          	beqz	s2,30004174 <putc+0x30>
3000416c:	03892783          	lw	a5,56(s2)
30004170:	04078a63          	beqz	a5,300041c4 <putc+0x80>
30004174:	00842783          	lw	a5,8(s0)
30004178:	fff78793          	addi	a5,a5,-1
3000417c:	00f42423          	sw	a5,8(s0)
30004180:	0007dc63          	bgez	a5,30004198 <putc+0x54>
30004184:	01842703          	lw	a4,24(s0)
30004188:	04e7c463          	blt	a5,a4,300041d0 <putc+0x8c>
3000418c:	0ff4f793          	zext.b	a5,s1
30004190:	00a00713          	li	a4,10
30004194:	02e78e63          	beq	a5,a4,300041d0 <putc+0x8c>
30004198:	00042783          	lw	a5,0(s0)
3000419c:	0ff4f513          	zext.b	a0,s1
300041a0:	00178713          	addi	a4,a5,1
300041a4:	00e42023          	sw	a4,0(s0)
300041a8:	00978023          	sb	s1,0(a5)
300041ac:	00c12083          	lw	ra,12(sp)
300041b0:	00812403          	lw	s0,8(sp)
300041b4:	00412483          	lw	s1,4(sp)
300041b8:	00012903          	lw	s2,0(sp)
300041bc:	01010113          	addi	sp,sp,16
300041c0:	00008067          	ret
300041c4:	00090513          	mv	a0,s2
300041c8:	329000ef          	jal	ra,30004cf0 <__sinit>
300041cc:	fa9ff06f          	j	30004174 <putc+0x30>
300041d0:	00040613          	mv	a2,s0
300041d4:	00812403          	lw	s0,8(sp)
300041d8:	00c12083          	lw	ra,12(sp)
300041dc:	00048593          	mv	a1,s1
300041e0:	00090513          	mv	a0,s2
300041e4:	00412483          	lw	s1,4(sp)
300041e8:	00012903          	lw	s2,0(sp)
300041ec:	01010113          	addi	sp,sp,16
300041f0:	0040006f          	j	300041f4 <__swbuf_r>

300041f4 <__swbuf_r>:
300041f4:	fe010113          	addi	sp,sp,-32
300041f8:	00812c23          	sw	s0,24(sp)
300041fc:	00912a23          	sw	s1,20(sp)
30004200:	01212823          	sw	s2,16(sp)
30004204:	00112e23          	sw	ra,28(sp)
30004208:	01312623          	sw	s3,12(sp)
3000420c:	00050913          	mv	s2,a0
30004210:	00058493          	mv	s1,a1
30004214:	00060413          	mv	s0,a2
30004218:	00050663          	beqz	a0,30004224 <__swbuf_r+0x30>
3000421c:	03852783          	lw	a5,56(a0)
30004220:	14078063          	beqz	a5,30004360 <__swbuf_r+0x16c>
30004224:	01842783          	lw	a5,24(s0)
30004228:	00c41703          	lh	a4,12(s0)
3000422c:	00f42423          	sw	a5,8(s0)
30004230:	00877793          	andi	a5,a4,8
30004234:	08078263          	beqz	a5,300042b8 <__swbuf_r+0xc4>
30004238:	01042783          	lw	a5,16(s0)
3000423c:	06078e63          	beqz	a5,300042b8 <__swbuf_r+0xc4>
30004240:	01271693          	slli	a3,a4,0x12
30004244:	0ff4f993          	zext.b	s3,s1
30004248:	0ff4f493          	zext.b	s1,s1
3000424c:	0806da63          	bgez	a3,300042e0 <__swbuf_r+0xec>
30004250:	00042703          	lw	a4,0(s0)
30004254:	01442683          	lw	a3,20(s0)
30004258:	40f707b3          	sub	a5,a4,a5
3000425c:	0ad7da63          	bge	a5,a3,30004310 <__swbuf_r+0x11c>
30004260:	00842683          	lw	a3,8(s0)
30004264:	00170613          	addi	a2,a4,1 # 1000001 <__stack_size+0xfff001>
30004268:	00c42023          	sw	a2,0(s0)
3000426c:	fff68693          	addi	a3,a3,-1
30004270:	00d42423          	sw	a3,8(s0)
30004274:	01370023          	sb	s3,0(a4)
30004278:	01442703          	lw	a4,20(s0)
3000427c:	00178793          	addi	a5,a5,1
30004280:	0cf70463          	beq	a4,a5,30004348 <__swbuf_r+0x154>
30004284:	00c45783          	lhu	a5,12(s0)
30004288:	0017f793          	andi	a5,a5,1
3000428c:	00078663          	beqz	a5,30004298 <__swbuf_r+0xa4>
30004290:	00a00793          	li	a5,10
30004294:	0af48a63          	beq	s1,a5,30004348 <__swbuf_r+0x154>
30004298:	01c12083          	lw	ra,28(sp)
3000429c:	01812403          	lw	s0,24(sp)
300042a0:	01012903          	lw	s2,16(sp)
300042a4:	00c12983          	lw	s3,12(sp)
300042a8:	00048513          	mv	a0,s1
300042ac:	01412483          	lw	s1,20(sp)
300042b0:	02010113          	addi	sp,sp,32
300042b4:	00008067          	ret
300042b8:	00040593          	mv	a1,s0
300042bc:	00090513          	mv	a0,s2
300042c0:	0c0000ef          	jal	ra,30004380 <__swsetup_r>
300042c4:	08051a63          	bnez	a0,30004358 <__swbuf_r+0x164>
300042c8:	00c41703          	lh	a4,12(s0)
300042cc:	0ff4f993          	zext.b	s3,s1
300042d0:	01042783          	lw	a5,16(s0)
300042d4:	01271693          	slli	a3,a4,0x12
300042d8:	0ff4f493          	zext.b	s1,s1
300042dc:	f606cae3          	bltz	a3,30004250 <__swbuf_r+0x5c>
300042e0:	06442683          	lw	a3,100(s0)
300042e4:	00002637          	lui	a2,0x2
300042e8:	00c76733          	or	a4,a4,a2
300042ec:	ffffe637          	lui	a2,0xffffe
300042f0:	fff60613          	addi	a2,a2,-1 # ffffdfff <_sp+0xcfefdfff>
300042f4:	00c6f6b3          	and	a3,a3,a2
300042f8:	00e41623          	sh	a4,12(s0)
300042fc:	00042703          	lw	a4,0(s0)
30004300:	06d42223          	sw	a3,100(s0)
30004304:	01442683          	lw	a3,20(s0)
30004308:	40f707b3          	sub	a5,a4,a5
3000430c:	f4d7cae3          	blt	a5,a3,30004260 <__swbuf_r+0x6c>
30004310:	00040593          	mv	a1,s0
30004314:	00090513          	mv	a0,s2
30004318:	5b0000ef          	jal	ra,300048c8 <_fflush_r>
3000431c:	02051e63          	bnez	a0,30004358 <__swbuf_r+0x164>
30004320:	00042703          	lw	a4,0(s0)
30004324:	00842683          	lw	a3,8(s0)
30004328:	00100793          	li	a5,1
3000432c:	00170613          	addi	a2,a4,1
30004330:	fff68693          	addi	a3,a3,-1
30004334:	00c42023          	sw	a2,0(s0)
30004338:	00d42423          	sw	a3,8(s0)
3000433c:	01370023          	sb	s3,0(a4)
30004340:	01442703          	lw	a4,20(s0)
30004344:	f4f710e3          	bne	a4,a5,30004284 <__swbuf_r+0x90>
30004348:	00040593          	mv	a1,s0
3000434c:	00090513          	mv	a0,s2
30004350:	578000ef          	jal	ra,300048c8 <_fflush_r>
30004354:	f40502e3          	beqz	a0,30004298 <__swbuf_r+0xa4>
30004358:	fff00493          	li	s1,-1
3000435c:	f3dff06f          	j	30004298 <__swbuf_r+0xa4>
30004360:	191000ef          	jal	ra,30004cf0 <__sinit>
30004364:	ec1ff06f          	j	30004224 <__swbuf_r+0x30>

30004368 <__swbuf>:
30004368:	30008737          	lui	a4,0x30008
3000436c:	00050793          	mv	a5,a0
30004370:	b1c72503          	lw	a0,-1252(a4) # 30007b1c <_impure_ptr>
30004374:	00058613          	mv	a2,a1
30004378:	00078593          	mv	a1,a5
3000437c:	e79ff06f          	j	300041f4 <__swbuf_r>

30004380 <__swsetup_r>:
30004380:	300087b7          	lui	a5,0x30008
30004384:	b1c7a783          	lw	a5,-1252(a5) # 30007b1c <_impure_ptr>
30004388:	ff010113          	addi	sp,sp,-16
3000438c:	00812423          	sw	s0,8(sp)
30004390:	00912223          	sw	s1,4(sp)
30004394:	00112623          	sw	ra,12(sp)
30004398:	00050493          	mv	s1,a0
3000439c:	00058413          	mv	s0,a1
300043a0:	00078663          	beqz	a5,300043ac <__swsetup_r+0x2c>
300043a4:	0387a703          	lw	a4,56(a5)
300043a8:	08070063          	beqz	a4,30004428 <__swsetup_r+0xa8>
300043ac:	00c41783          	lh	a5,12(s0)
300043b0:	0087f713          	andi	a4,a5,8
300043b4:	08070463          	beqz	a4,3000443c <__swsetup_r+0xbc>
300043b8:	01042703          	lw	a4,16(s0)
300043bc:	0a070063          	beqz	a4,3000445c <__swsetup_r+0xdc>
300043c0:	0017f693          	andi	a3,a5,1
300043c4:	02068863          	beqz	a3,300043f4 <__swsetup_r+0x74>
300043c8:	01442683          	lw	a3,20(s0)
300043cc:	00042423          	sw	zero,8(s0)
300043d0:	00000513          	li	a0,0
300043d4:	40d006b3          	neg	a3,a3
300043d8:	00d42c23          	sw	a3,24(s0)
300043dc:	02070a63          	beqz	a4,30004410 <__swsetup_r+0x90>
300043e0:	00c12083          	lw	ra,12(sp)
300043e4:	00812403          	lw	s0,8(sp)
300043e8:	00412483          	lw	s1,4(sp)
300043ec:	01010113          	addi	sp,sp,16
300043f0:	00008067          	ret
300043f4:	0027f693          	andi	a3,a5,2
300043f8:	00000613          	li	a2,0
300043fc:	00069463          	bnez	a3,30004404 <__swsetup_r+0x84>
30004400:	01442603          	lw	a2,20(s0)
30004404:	00c42423          	sw	a2,8(s0)
30004408:	00000513          	li	a0,0
3000440c:	fc071ae3          	bnez	a4,300043e0 <__swsetup_r+0x60>
30004410:	0807f713          	andi	a4,a5,128
30004414:	fc0706e3          	beqz	a4,300043e0 <__swsetup_r+0x60>
30004418:	0407e793          	ori	a5,a5,64
3000441c:	00f41623          	sh	a5,12(s0)
30004420:	fff00513          	li	a0,-1
30004424:	fbdff06f          	j	300043e0 <__swsetup_r+0x60>
30004428:	00078513          	mv	a0,a5
3000442c:	0c5000ef          	jal	ra,30004cf0 <__sinit>
30004430:	00c41783          	lh	a5,12(s0)
30004434:	0087f713          	andi	a4,a5,8
30004438:	f80710e3          	bnez	a4,300043b8 <__swsetup_r+0x38>
3000443c:	0107f713          	andi	a4,a5,16
30004440:	06070a63          	beqz	a4,300044b4 <__swsetup_r+0x134>
30004444:	0047f713          	andi	a4,a5,4
30004448:	02071c63          	bnez	a4,30004480 <__swsetup_r+0x100>
3000444c:	01042703          	lw	a4,16(s0)
30004450:	0087e793          	ori	a5,a5,8
30004454:	00f41623          	sh	a5,12(s0)
30004458:	f60714e3          	bnez	a4,300043c0 <__swsetup_r+0x40>
3000445c:	2807f693          	andi	a3,a5,640
30004460:	20000613          	li	a2,512
30004464:	f4c68ee3          	beq	a3,a2,300043c0 <__swsetup_r+0x40>
30004468:	00040593          	mv	a1,s0
3000446c:	00048513          	mv	a0,s1
30004470:	665000ef          	jal	ra,300052d4 <__smakebuf_r>
30004474:	00c41783          	lh	a5,12(s0)
30004478:	01042703          	lw	a4,16(s0)
3000447c:	f45ff06f          	j	300043c0 <__swsetup_r+0x40>
30004480:	03042583          	lw	a1,48(s0)
30004484:	00058e63          	beqz	a1,300044a0 <__swsetup_r+0x120>
30004488:	04040713          	addi	a4,s0,64
3000448c:	00e58863          	beq	a1,a4,3000449c <__swsetup_r+0x11c>
30004490:	00048513          	mv	a0,s1
30004494:	1e5000ef          	jal	ra,30004e78 <_free_r>
30004498:	00c41783          	lh	a5,12(s0)
3000449c:	02042823          	sw	zero,48(s0)
300044a0:	01042703          	lw	a4,16(s0)
300044a4:	fdb7f793          	andi	a5,a5,-37
300044a8:	00042223          	sw	zero,4(s0)
300044ac:	00e42023          	sw	a4,0(s0)
300044b0:	fa1ff06f          	j	30004450 <__swsetup_r+0xd0>
300044b4:	00900713          	li	a4,9
300044b8:	00e4a023          	sw	a4,0(s1)
300044bc:	0407e793          	ori	a5,a5,64
300044c0:	f5dff06f          	j	3000441c <__swsetup_r+0x9c>

300044c4 <__register_exitproc>:
300044c4:	8101a703          	lw	a4,-2032(gp) # 30007b28 <_global_impure_ptr>
300044c8:	14872783          	lw	a5,328(a4)
300044cc:	04078c63          	beqz	a5,30004524 <__register_exitproc+0x60>
300044d0:	0047a703          	lw	a4,4(a5)
300044d4:	01f00813          	li	a6,31
300044d8:	06e84e63          	blt	a6,a4,30004554 <__register_exitproc+0x90>
300044dc:	00271813          	slli	a6,a4,0x2
300044e0:	02050663          	beqz	a0,3000450c <__register_exitproc+0x48>
300044e4:	01078333          	add	t1,a5,a6
300044e8:	08c32423          	sw	a2,136(t1)
300044ec:	1887a883          	lw	a7,392(a5)
300044f0:	00100613          	li	a2,1
300044f4:	00e61633          	sll	a2,a2,a4
300044f8:	00c8e8b3          	or	a7,a7,a2
300044fc:	1917a423          	sw	a7,392(a5)
30004500:	10d32423          	sw	a3,264(t1)
30004504:	00200693          	li	a3,2
30004508:	02d50463          	beq	a0,a3,30004530 <__register_exitproc+0x6c>
3000450c:	00170713          	addi	a4,a4,1
30004510:	00e7a223          	sw	a4,4(a5)
30004514:	010787b3          	add	a5,a5,a6
30004518:	00b7a423          	sw	a1,8(a5)
3000451c:	00000513          	li	a0,0
30004520:	00008067          	ret
30004524:	14c70793          	addi	a5,a4,332
30004528:	14f72423          	sw	a5,328(a4)
3000452c:	fa5ff06f          	j	300044d0 <__register_exitproc+0xc>
30004530:	18c7a683          	lw	a3,396(a5)
30004534:	00170713          	addi	a4,a4,1
30004538:	00e7a223          	sw	a4,4(a5)
3000453c:	00c6e6b3          	or	a3,a3,a2
30004540:	18d7a623          	sw	a3,396(a5)
30004544:	010787b3          	add	a5,a5,a6
30004548:	00b7a423          	sw	a1,8(a5)
3000454c:	00000513          	li	a0,0
30004550:	00008067          	ret
30004554:	fff00513          	li	a0,-1
30004558:	00008067          	ret

3000455c <__call_exitprocs>:
3000455c:	fd010113          	addi	sp,sp,-48
30004560:	01412c23          	sw	s4,24(sp)
30004564:	8101aa03          	lw	s4,-2032(gp) # 30007b28 <_global_impure_ptr>
30004568:	03212023          	sw	s2,32(sp)
3000456c:	02112623          	sw	ra,44(sp)
30004570:	148a2903          	lw	s2,328(s4)
30004574:	02812423          	sw	s0,40(sp)
30004578:	02912223          	sw	s1,36(sp)
3000457c:	01312e23          	sw	s3,28(sp)
30004580:	01512a23          	sw	s5,20(sp)
30004584:	01612823          	sw	s6,16(sp)
30004588:	01712623          	sw	s7,12(sp)
3000458c:	01812423          	sw	s8,8(sp)
30004590:	04090063          	beqz	s2,300045d0 <__call_exitprocs+0x74>
30004594:	00050b13          	mv	s6,a0
30004598:	00058b93          	mv	s7,a1
3000459c:	00100a93          	li	s5,1
300045a0:	fff00993          	li	s3,-1
300045a4:	00492483          	lw	s1,4(s2)
300045a8:	fff48413          	addi	s0,s1,-1
300045ac:	02044263          	bltz	s0,300045d0 <__call_exitprocs+0x74>
300045b0:	00249493          	slli	s1,s1,0x2
300045b4:	009904b3          	add	s1,s2,s1
300045b8:	040b8463          	beqz	s7,30004600 <__call_exitprocs+0xa4>
300045bc:	1044a783          	lw	a5,260(s1)
300045c0:	05778063          	beq	a5,s7,30004600 <__call_exitprocs+0xa4>
300045c4:	fff40413          	addi	s0,s0,-1
300045c8:	ffc48493          	addi	s1,s1,-4
300045cc:	ff3416e3          	bne	s0,s3,300045b8 <__call_exitprocs+0x5c>
300045d0:	02c12083          	lw	ra,44(sp)
300045d4:	02812403          	lw	s0,40(sp)
300045d8:	02412483          	lw	s1,36(sp)
300045dc:	02012903          	lw	s2,32(sp)
300045e0:	01c12983          	lw	s3,28(sp)
300045e4:	01812a03          	lw	s4,24(sp)
300045e8:	01412a83          	lw	s5,20(sp)
300045ec:	01012b03          	lw	s6,16(sp)
300045f0:	00c12b83          	lw	s7,12(sp)
300045f4:	00812c03          	lw	s8,8(sp)
300045f8:	03010113          	addi	sp,sp,48
300045fc:	00008067          	ret
30004600:	00492783          	lw	a5,4(s2)
30004604:	0044a683          	lw	a3,4(s1)
30004608:	fff78793          	addi	a5,a5,-1
3000460c:	04878e63          	beq	a5,s0,30004668 <__call_exitprocs+0x10c>
30004610:	0004a223          	sw	zero,4(s1)
30004614:	fa0688e3          	beqz	a3,300045c4 <__call_exitprocs+0x68>
30004618:	18892783          	lw	a5,392(s2)
3000461c:	008a9733          	sll	a4,s5,s0
30004620:	00492c03          	lw	s8,4(s2)
30004624:	00f777b3          	and	a5,a4,a5
30004628:	02079263          	bnez	a5,3000464c <__call_exitprocs+0xf0>
3000462c:	000680e7          	jalr	a3
30004630:	00492703          	lw	a4,4(s2)
30004634:	148a2783          	lw	a5,328(s4)
30004638:	01871463          	bne	a4,s8,30004640 <__call_exitprocs+0xe4>
3000463c:	f92784e3          	beq	a5,s2,300045c4 <__call_exitprocs+0x68>
30004640:	f80788e3          	beqz	a5,300045d0 <__call_exitprocs+0x74>
30004644:	00078913          	mv	s2,a5
30004648:	f5dff06f          	j	300045a4 <__call_exitprocs+0x48>
3000464c:	18c92783          	lw	a5,396(s2)
30004650:	0844a583          	lw	a1,132(s1)
30004654:	00f77733          	and	a4,a4,a5
30004658:	00071c63          	bnez	a4,30004670 <__call_exitprocs+0x114>
3000465c:	000b0513          	mv	a0,s6
30004660:	000680e7          	jalr	a3
30004664:	fcdff06f          	j	30004630 <__call_exitprocs+0xd4>
30004668:	00892223          	sw	s0,4(s2)
3000466c:	fa9ff06f          	j	30004614 <__call_exitprocs+0xb8>
30004670:	00058513          	mv	a0,a1
30004674:	000680e7          	jalr	a3
30004678:	fb9ff06f          	j	30004630 <__call_exitprocs+0xd4>

3000467c <__sflush_r>:
3000467c:	00c59783          	lh	a5,12(a1) # 400000c <__stack_size+0x3fff00c>
30004680:	fe010113          	addi	sp,sp,-32
30004684:	00812c23          	sw	s0,24(sp)
30004688:	01312623          	sw	s3,12(sp)
3000468c:	00112e23          	sw	ra,28(sp)
30004690:	00912a23          	sw	s1,20(sp)
30004694:	01212823          	sw	s2,16(sp)
30004698:	0087f713          	andi	a4,a5,8
3000469c:	00058413          	mv	s0,a1
300046a0:	00050993          	mv	s3,a0
300046a4:	12071263          	bnez	a4,300047c8 <__sflush_r+0x14c>
300046a8:	00001737          	lui	a4,0x1
300046ac:	80070713          	addi	a4,a4,-2048 # 800 <__stack_size-0x800>
300046b0:	0045a683          	lw	a3,4(a1)
300046b4:	00e7e733          	or	a4,a5,a4
300046b8:	00e59623          	sh	a4,12(a1)
300046bc:	18d05863          	blez	a3,3000484c <__sflush_r+0x1d0>
300046c0:	02842803          	lw	a6,40(s0)
300046c4:	0e080263          	beqz	a6,300047a8 <__sflush_r+0x12c>
300046c8:	00c7d793          	srli	a5,a5,0xc
300046cc:	0009a483          	lw	s1,0(s3)
300046d0:	0017f793          	andi	a5,a5,1
300046d4:	0009a023          	sw	zero,0(s3)
300046d8:	01c42583          	lw	a1,28(s0)
300046dc:	18079063          	bnez	a5,3000485c <__sflush_r+0x1e0>
300046e0:	00000613          	li	a2,0
300046e4:	00100693          	li	a3,1
300046e8:	00098513          	mv	a0,s3
300046ec:	000800e7          	jalr	a6
300046f0:	fff00793          	li	a5,-1
300046f4:	00050613          	mv	a2,a0
300046f8:	1af50063          	beq	a0,a5,30004898 <__sflush_r+0x21c>
300046fc:	00c41703          	lh	a4,12(s0)
30004700:	02842803          	lw	a6,40(s0)
30004704:	01c42583          	lw	a1,28(s0)
30004708:	00477713          	andi	a4,a4,4
3000470c:	00070e63          	beqz	a4,30004728 <__sflush_r+0xac>
30004710:	00442703          	lw	a4,4(s0)
30004714:	03042783          	lw	a5,48(s0)
30004718:	40e60633          	sub	a2,a2,a4
3000471c:	00078663          	beqz	a5,30004728 <__sflush_r+0xac>
30004720:	03c42783          	lw	a5,60(s0)
30004724:	40f60633          	sub	a2,a2,a5
30004728:	00000693          	li	a3,0
3000472c:	00098513          	mv	a0,s3
30004730:	000800e7          	jalr	a6
30004734:	fff00793          	li	a5,-1
30004738:	12f51663          	bne	a0,a5,30004864 <__sflush_r+0x1e8>
3000473c:	0009a683          	lw	a3,0(s3)
30004740:	01d00793          	li	a5,29
30004744:	0cd7ee63          	bltu	a5,a3,30004820 <__sflush_r+0x1a4>
30004748:	dfc00737          	lui	a4,0xdfc00
3000474c:	ffe70713          	addi	a4,a4,-2 # dfbffffe <_sp+0xafaffffe>
30004750:	40d75733          	sra	a4,a4,a3
30004754:	00177713          	andi	a4,a4,1
30004758:	00c41783          	lh	a5,12(s0)
3000475c:	0c071463          	bnez	a4,30004824 <__sflush_r+0x1a8>
30004760:	01042603          	lw	a2,16(s0)
30004764:	fffff737          	lui	a4,0xfffff
30004768:	7ff70713          	addi	a4,a4,2047 # fffff7ff <_sp+0xcfeff7ff>
3000476c:	00e7f733          	and	a4,a5,a4
30004770:	00c7d793          	srli	a5,a5,0xc
30004774:	00e41623          	sh	a4,12(s0)
30004778:	00042223          	sw	zero,4(s0)
3000477c:	00c42023          	sw	a2,0(s0)
30004780:	0017f793          	andi	a5,a5,1
30004784:	12079c63          	bnez	a5,300048bc <__sflush_r+0x240>
30004788:	03042583          	lw	a1,48(s0)
3000478c:	0099a023          	sw	s1,0(s3)
30004790:	00058c63          	beqz	a1,300047a8 <__sflush_r+0x12c>
30004794:	04040793          	addi	a5,s0,64
30004798:	00f58663          	beq	a1,a5,300047a4 <__sflush_r+0x128>
3000479c:	00098513          	mv	a0,s3
300047a0:	6d8000ef          	jal	ra,30004e78 <_free_r>
300047a4:	02042823          	sw	zero,48(s0)
300047a8:	00000513          	li	a0,0
300047ac:	01c12083          	lw	ra,28(sp)
300047b0:	01812403          	lw	s0,24(sp)
300047b4:	01412483          	lw	s1,20(sp)
300047b8:	01012903          	lw	s2,16(sp)
300047bc:	00c12983          	lw	s3,12(sp)
300047c0:	02010113          	addi	sp,sp,32
300047c4:	00008067          	ret
300047c8:	0105a903          	lw	s2,16(a1)
300047cc:	fc090ee3          	beqz	s2,300047a8 <__sflush_r+0x12c>
300047d0:	0005a483          	lw	s1,0(a1)
300047d4:	0037f793          	andi	a5,a5,3
300047d8:	0125a023          	sw	s2,0(a1)
300047dc:	412484b3          	sub	s1,s1,s2
300047e0:	00000713          	li	a4,0
300047e4:	00079463          	bnez	a5,300047ec <__sflush_r+0x170>
300047e8:	0145a703          	lw	a4,20(a1)
300047ec:	00e42423          	sw	a4,8(s0)
300047f0:	00904863          	bgtz	s1,30004800 <__sflush_r+0x184>
300047f4:	fb5ff06f          	j	300047a8 <__sflush_r+0x12c>
300047f8:	00a90933          	add	s2,s2,a0
300047fc:	fa9056e3          	blez	s1,300047a8 <__sflush_r+0x12c>
30004800:	02442783          	lw	a5,36(s0)
30004804:	01c42583          	lw	a1,28(s0)
30004808:	00048693          	mv	a3,s1
3000480c:	00090613          	mv	a2,s2
30004810:	00098513          	mv	a0,s3
30004814:	000780e7          	jalr	a5
30004818:	40a484b3          	sub	s1,s1,a0
3000481c:	fca04ee3          	bgtz	a0,300047f8 <__sflush_r+0x17c>
30004820:	00c41783          	lh	a5,12(s0)
30004824:	0407e793          	ori	a5,a5,64
30004828:	01c12083          	lw	ra,28(sp)
3000482c:	00f41623          	sh	a5,12(s0)
30004830:	01812403          	lw	s0,24(sp)
30004834:	01412483          	lw	s1,20(sp)
30004838:	01012903          	lw	s2,16(sp)
3000483c:	00c12983          	lw	s3,12(sp)
30004840:	fff00513          	li	a0,-1
30004844:	02010113          	addi	sp,sp,32
30004848:	00008067          	ret
3000484c:	03c5a683          	lw	a3,60(a1)
30004850:	e6d048e3          	bgtz	a3,300046c0 <__sflush_r+0x44>
30004854:	00000513          	li	a0,0
30004858:	f55ff06f          	j	300047ac <__sflush_r+0x130>
3000485c:	05042603          	lw	a2,80(s0)
30004860:	ea9ff06f          	j	30004708 <__sflush_r+0x8c>
30004864:	00c41783          	lh	a5,12(s0)
30004868:	01042683          	lw	a3,16(s0)
3000486c:	fffff737          	lui	a4,0xfffff
30004870:	7ff70713          	addi	a4,a4,2047 # fffff7ff <_sp+0xcfeff7ff>
30004874:	00e7f733          	and	a4,a5,a4
30004878:	00c7d793          	srli	a5,a5,0xc
3000487c:	00e41623          	sh	a4,12(s0)
30004880:	00042223          	sw	zero,4(s0)
30004884:	00d42023          	sw	a3,0(s0)
30004888:	0017f793          	andi	a5,a5,1
3000488c:	ee078ee3          	beqz	a5,30004788 <__sflush_r+0x10c>
30004890:	04a42823          	sw	a0,80(s0)
30004894:	ef5ff06f          	j	30004788 <__sflush_r+0x10c>
30004898:	0009a783          	lw	a5,0(s3)
3000489c:	e60780e3          	beqz	a5,300046fc <__sflush_r+0x80>
300048a0:	01d00713          	li	a4,29
300048a4:	00e78663          	beq	a5,a4,300048b0 <__sflush_r+0x234>
300048a8:	01600713          	li	a4,22
300048ac:	f6e79ae3          	bne	a5,a4,30004820 <__sflush_r+0x1a4>
300048b0:	0099a023          	sw	s1,0(s3)
300048b4:	00000513          	li	a0,0
300048b8:	ef5ff06f          	j	300047ac <__sflush_r+0x130>
300048bc:	ec0696e3          	bnez	a3,30004788 <__sflush_r+0x10c>
300048c0:	04a42823          	sw	a0,80(s0)
300048c4:	ec5ff06f          	j	30004788 <__sflush_r+0x10c>

300048c8 <_fflush_r>:
300048c8:	fe010113          	addi	sp,sp,-32
300048cc:	00812c23          	sw	s0,24(sp)
300048d0:	00112e23          	sw	ra,28(sp)
300048d4:	00050413          	mv	s0,a0
300048d8:	00050663          	beqz	a0,300048e4 <_fflush_r+0x1c>
300048dc:	03852783          	lw	a5,56(a0)
300048e0:	02078063          	beqz	a5,30004900 <_fflush_r+0x38>
300048e4:	00c59783          	lh	a5,12(a1)
300048e8:	02079663          	bnez	a5,30004914 <_fflush_r+0x4c>
300048ec:	01c12083          	lw	ra,28(sp)
300048f0:	01812403          	lw	s0,24(sp)
300048f4:	00000513          	li	a0,0
300048f8:	02010113          	addi	sp,sp,32
300048fc:	00008067          	ret
30004900:	00b12623          	sw	a1,12(sp)
30004904:	3ec000ef          	jal	ra,30004cf0 <__sinit>
30004908:	00c12583          	lw	a1,12(sp)
3000490c:	00c59783          	lh	a5,12(a1)
30004910:	fc078ee3          	beqz	a5,300048ec <_fflush_r+0x24>
30004914:	00040513          	mv	a0,s0
30004918:	01812403          	lw	s0,24(sp)
3000491c:	01c12083          	lw	ra,28(sp)
30004920:	02010113          	addi	sp,sp,32
30004924:	d59ff06f          	j	3000467c <__sflush_r>

30004928 <fflush>:
30004928:	06050863          	beqz	a0,30004998 <fflush+0x70>
3000492c:	fe010113          	addi	sp,sp,-32
30004930:	300087b7          	lui	a5,0x30008
30004934:	00812c23          	sw	s0,24(sp)
30004938:	00050413          	mv	s0,a0
3000493c:	b1c7a503          	lw	a0,-1252(a5) # 30007b1c <_impure_ptr>
30004940:	00112e23          	sw	ra,28(sp)
30004944:	00050663          	beqz	a0,30004950 <fflush+0x28>
30004948:	03852783          	lw	a5,56(a0)
3000494c:	02078a63          	beqz	a5,30004980 <fflush+0x58>
30004950:	00c41783          	lh	a5,12(s0)
30004954:	00079c63          	bnez	a5,3000496c <fflush+0x44>
30004958:	01c12083          	lw	ra,28(sp)
3000495c:	01812403          	lw	s0,24(sp)
30004960:	00000513          	li	a0,0
30004964:	02010113          	addi	sp,sp,32
30004968:	00008067          	ret
3000496c:	00040593          	mv	a1,s0
30004970:	01812403          	lw	s0,24(sp)
30004974:	01c12083          	lw	ra,28(sp)
30004978:	02010113          	addi	sp,sp,32
3000497c:	d01ff06f          	j	3000467c <__sflush_r>
30004980:	00a12623          	sw	a0,12(sp)
30004984:	36c000ef          	jal	ra,30004cf0 <__sinit>
30004988:	00c41783          	lh	a5,12(s0)
3000498c:	00c12503          	lw	a0,12(sp)
30004990:	fc0784e3          	beqz	a5,30004958 <fflush+0x30>
30004994:	fd9ff06f          	j	3000496c <fflush+0x44>
30004998:	8101a503          	lw	a0,-2032(gp) # 30007b28 <_global_impure_ptr>
3000499c:	300055b7          	lui	a1,0x30005
300049a0:	8c858593          	addi	a1,a1,-1848 # 300048c8 <_fflush_r>
300049a4:	07d0006f          	j	30005220 <_fwalk_reent>

300049a8 <__fp_lock>:
300049a8:	00000513          	li	a0,0
300049ac:	00008067          	ret

300049b0 <_cleanup_r>:
300049b0:	300065b7          	lui	a1,0x30006
300049b4:	03858593          	addi	a1,a1,56 # 30006038 <_fclose_r>
300049b8:	0690006f          	j	30005220 <_fwalk_reent>

300049bc <__fp_unlock>:
300049bc:	00000513          	li	a0,0
300049c0:	00008067          	ret

300049c4 <__sinit.part.0>:
300049c4:	fe010113          	addi	sp,sp,-32
300049c8:	300057b7          	lui	a5,0x30005
300049cc:	00112e23          	sw	ra,28(sp)
300049d0:	00812c23          	sw	s0,24(sp)
300049d4:	00912a23          	sw	s1,20(sp)
300049d8:	01212823          	sw	s2,16(sp)
300049dc:	01312623          	sw	s3,12(sp)
300049e0:	01412423          	sw	s4,8(sp)
300049e4:	01512223          	sw	s5,4(sp)
300049e8:	01612023          	sw	s6,0(sp)
300049ec:	00452403          	lw	s0,4(a0)
300049f0:	9b078793          	addi	a5,a5,-1616 # 300049b0 <_cleanup_r>
300049f4:	02f52e23          	sw	a5,60(a0)
300049f8:	2ec50713          	addi	a4,a0,748
300049fc:	00300793          	li	a5,3
30004a00:	2ee52423          	sw	a4,744(a0)
30004a04:	2ef52223          	sw	a5,740(a0)
30004a08:	2e052023          	sw	zero,736(a0)
30004a0c:	00400793          	li	a5,4
30004a10:	00050913          	mv	s2,a0
30004a14:	00f42623          	sw	a5,12(s0)
30004a18:	00800613          	li	a2,8
30004a1c:	00000593          	li	a1,0
30004a20:	00042023          	sw	zero,0(s0)
30004a24:	00042223          	sw	zero,4(s0)
30004a28:	00042423          	sw	zero,8(s0)
30004a2c:	06042223          	sw	zero,100(s0)
30004a30:	00042823          	sw	zero,16(s0)
30004a34:	00042a23          	sw	zero,20(s0)
30004a38:	00042c23          	sw	zero,24(s0)
30004a3c:	05c40513          	addi	a0,s0,92
30004a40:	288010ef          	jal	ra,30005cc8 <memset>
30004a44:	30006b37          	lui	s6,0x30006
30004a48:	00892483          	lw	s1,8(s2)
30004a4c:	30006ab7          	lui	s5,0x30006
30004a50:	30006a37          	lui	s4,0x30006
30004a54:	300069b7          	lui	s3,0x30006
30004a58:	e08b0b13          	addi	s6,s6,-504 # 30005e08 <__sread>
30004a5c:	e6ca8a93          	addi	s5,s5,-404 # 30005e6c <__swrite>
30004a60:	ef4a0a13          	addi	s4,s4,-268 # 30005ef4 <__sseek>
30004a64:	f6c98993          	addi	s3,s3,-148 # 30005f6c <__sclose>
30004a68:	000107b7          	lui	a5,0x10
30004a6c:	03642023          	sw	s6,32(s0)
30004a70:	03542223          	sw	s5,36(s0)
30004a74:	03442423          	sw	s4,40(s0)
30004a78:	03342623          	sw	s3,44(s0)
30004a7c:	00842e23          	sw	s0,28(s0)
30004a80:	00978793          	addi	a5,a5,9 # 10009 <__stack_size+0xf009>
30004a84:	00f4a623          	sw	a5,12(s1)
30004a88:	00800613          	li	a2,8
30004a8c:	00000593          	li	a1,0
30004a90:	0004a023          	sw	zero,0(s1)
30004a94:	0004a223          	sw	zero,4(s1)
30004a98:	0004a423          	sw	zero,8(s1)
30004a9c:	0604a223          	sw	zero,100(s1)
30004aa0:	0004a823          	sw	zero,16(s1)
30004aa4:	0004aa23          	sw	zero,20(s1)
30004aa8:	0004ac23          	sw	zero,24(s1)
30004aac:	05c48513          	addi	a0,s1,92
30004ab0:	218010ef          	jal	ra,30005cc8 <memset>
30004ab4:	00c92403          	lw	s0,12(s2)
30004ab8:	000207b7          	lui	a5,0x20
30004abc:	0364a023          	sw	s6,32(s1)
30004ac0:	0354a223          	sw	s5,36(s1)
30004ac4:	0344a423          	sw	s4,40(s1)
30004ac8:	0334a623          	sw	s3,44(s1)
30004acc:	0094ae23          	sw	s1,28(s1)
30004ad0:	01278793          	addi	a5,a5,18 # 20012 <__stack_size+0x1f012>
30004ad4:	00f42623          	sw	a5,12(s0)
30004ad8:	00042023          	sw	zero,0(s0)
30004adc:	00042223          	sw	zero,4(s0)
30004ae0:	00042423          	sw	zero,8(s0)
30004ae4:	06042223          	sw	zero,100(s0)
30004ae8:	00042823          	sw	zero,16(s0)
30004aec:	00042a23          	sw	zero,20(s0)
30004af0:	00042c23          	sw	zero,24(s0)
30004af4:	05c40513          	addi	a0,s0,92
30004af8:	00800613          	li	a2,8
30004afc:	00000593          	li	a1,0
30004b00:	1c8010ef          	jal	ra,30005cc8 <memset>
30004b04:	01c12083          	lw	ra,28(sp)
30004b08:	03642023          	sw	s6,32(s0)
30004b0c:	03542223          	sw	s5,36(s0)
30004b10:	03442423          	sw	s4,40(s0)
30004b14:	03342623          	sw	s3,44(s0)
30004b18:	00842e23          	sw	s0,28(s0)
30004b1c:	01812403          	lw	s0,24(sp)
30004b20:	00100793          	li	a5,1
30004b24:	02f92c23          	sw	a5,56(s2)
30004b28:	01412483          	lw	s1,20(sp)
30004b2c:	01012903          	lw	s2,16(sp)
30004b30:	00c12983          	lw	s3,12(sp)
30004b34:	00812a03          	lw	s4,8(sp)
30004b38:	00412a83          	lw	s5,4(sp)
30004b3c:	00012b03          	lw	s6,0(sp)
30004b40:	02010113          	addi	sp,sp,32
30004b44:	00008067          	ret

30004b48 <__sfmoreglue>:
30004b48:	ff010113          	addi	sp,sp,-16
30004b4c:	00912223          	sw	s1,4(sp)
30004b50:	06800793          	li	a5,104
30004b54:	fff58493          	addi	s1,a1,-1
30004b58:	02f484b3          	mul	s1,s1,a5
30004b5c:	01212023          	sw	s2,0(sp)
30004b60:	00058913          	mv	s2,a1
30004b64:	00812423          	sw	s0,8(sp)
30004b68:	00112623          	sw	ra,12(sp)
30004b6c:	07448593          	addi	a1,s1,116
30004b70:	1cd000ef          	jal	ra,3000553c <_malloc_r>
30004b74:	00050413          	mv	s0,a0
30004b78:	02050063          	beqz	a0,30004b98 <__sfmoreglue+0x50>
30004b7c:	00c50513          	addi	a0,a0,12
30004b80:	00042023          	sw	zero,0(s0)
30004b84:	01242223          	sw	s2,4(s0)
30004b88:	00a42423          	sw	a0,8(s0)
30004b8c:	06848613          	addi	a2,s1,104
30004b90:	00000593          	li	a1,0
30004b94:	134010ef          	jal	ra,30005cc8 <memset>
30004b98:	00c12083          	lw	ra,12(sp)
30004b9c:	00040513          	mv	a0,s0
30004ba0:	00812403          	lw	s0,8(sp)
30004ba4:	00412483          	lw	s1,4(sp)
30004ba8:	00012903          	lw	s2,0(sp)
30004bac:	01010113          	addi	sp,sp,16
30004bb0:	00008067          	ret

30004bb4 <__sfp>:
30004bb4:	fe010113          	addi	sp,sp,-32
30004bb8:	01212823          	sw	s2,16(sp)
30004bbc:	8101a903          	lw	s2,-2032(gp) # 30007b28 <_global_impure_ptr>
30004bc0:	01312623          	sw	s3,12(sp)
30004bc4:	00112e23          	sw	ra,28(sp)
30004bc8:	03892783          	lw	a5,56(s2)
30004bcc:	00812c23          	sw	s0,24(sp)
30004bd0:	00912a23          	sw	s1,20(sp)
30004bd4:	00050993          	mv	s3,a0
30004bd8:	0a078663          	beqz	a5,30004c84 <__sfp+0xd0>
30004bdc:	2e090913          	addi	s2,s2,736
30004be0:	fff00493          	li	s1,-1
30004be4:	00492783          	lw	a5,4(s2)
30004be8:	00892403          	lw	s0,8(s2)
30004bec:	fff78793          	addi	a5,a5,-1
30004bf0:	0007d863          	bgez	a5,30004c00 <__sfp+0x4c>
30004bf4:	0800006f          	j	30004c74 <__sfp+0xc0>
30004bf8:	06840413          	addi	s0,s0,104
30004bfc:	06978c63          	beq	a5,s1,30004c74 <__sfp+0xc0>
30004c00:	00c41703          	lh	a4,12(s0)
30004c04:	fff78793          	addi	a5,a5,-1
30004c08:	fe0718e3          	bnez	a4,30004bf8 <__sfp+0x44>
30004c0c:	ffff07b7          	lui	a5,0xffff0
30004c10:	00178793          	addi	a5,a5,1 # ffff0001 <_sp+0xcfef0001>
30004c14:	00f42623          	sw	a5,12(s0)
30004c18:	06042223          	sw	zero,100(s0)
30004c1c:	00042023          	sw	zero,0(s0)
30004c20:	00042423          	sw	zero,8(s0)
30004c24:	00042223          	sw	zero,4(s0)
30004c28:	00042823          	sw	zero,16(s0)
30004c2c:	00042a23          	sw	zero,20(s0)
30004c30:	00042c23          	sw	zero,24(s0)
30004c34:	00800613          	li	a2,8
30004c38:	00000593          	li	a1,0
30004c3c:	05c40513          	addi	a0,s0,92
30004c40:	088010ef          	jal	ra,30005cc8 <memset>
30004c44:	02042823          	sw	zero,48(s0)
30004c48:	02042a23          	sw	zero,52(s0)
30004c4c:	04042223          	sw	zero,68(s0)
30004c50:	04042423          	sw	zero,72(s0)
30004c54:	01c12083          	lw	ra,28(sp)
30004c58:	00040513          	mv	a0,s0
30004c5c:	01812403          	lw	s0,24(sp)
30004c60:	01412483          	lw	s1,20(sp)
30004c64:	01012903          	lw	s2,16(sp)
30004c68:	00c12983          	lw	s3,12(sp)
30004c6c:	02010113          	addi	sp,sp,32
30004c70:	00008067          	ret
30004c74:	00092403          	lw	s0,0(s2)
30004c78:	00040c63          	beqz	s0,30004c90 <__sfp+0xdc>
30004c7c:	00040913          	mv	s2,s0
30004c80:	f65ff06f          	j	30004be4 <__sfp+0x30>
30004c84:	00090513          	mv	a0,s2
30004c88:	d3dff0ef          	jal	ra,300049c4 <__sinit.part.0>
30004c8c:	f51ff06f          	j	30004bdc <__sfp+0x28>
30004c90:	1ac00593          	li	a1,428
30004c94:	00098513          	mv	a0,s3
30004c98:	0a5000ef          	jal	ra,3000553c <_malloc_r>
30004c9c:	00050413          	mv	s0,a0
30004ca0:	02050863          	beqz	a0,30004cd0 <__sfp+0x11c>
30004ca4:	00c50513          	addi	a0,a0,12
30004ca8:	00400793          	li	a5,4
30004cac:	00042023          	sw	zero,0(s0)
30004cb0:	00f42223          	sw	a5,4(s0)
30004cb4:	00a42423          	sw	a0,8(s0)
30004cb8:	1a000613          	li	a2,416
30004cbc:	00000593          	li	a1,0
30004cc0:	008010ef          	jal	ra,30005cc8 <memset>
30004cc4:	00892023          	sw	s0,0(s2)
30004cc8:	00040913          	mv	s2,s0
30004ccc:	f19ff06f          	j	30004be4 <__sfp+0x30>
30004cd0:	00092023          	sw	zero,0(s2)
30004cd4:	00c00793          	li	a5,12
30004cd8:	00f9a023          	sw	a5,0(s3)
30004cdc:	f79ff06f          	j	30004c54 <__sfp+0xa0>

30004ce0 <_cleanup>:
30004ce0:	8101a503          	lw	a0,-2032(gp) # 30007b28 <_global_impure_ptr>
30004ce4:	300065b7          	lui	a1,0x30006
30004ce8:	03858593          	addi	a1,a1,56 # 30006038 <_fclose_r>
30004cec:	5340006f          	j	30005220 <_fwalk_reent>

30004cf0 <__sinit>:
30004cf0:	03852783          	lw	a5,56(a0)
30004cf4:	00078463          	beqz	a5,30004cfc <__sinit+0xc>
30004cf8:	00008067          	ret
30004cfc:	cc9ff06f          	j	300049c4 <__sinit.part.0>

30004d00 <__sfp_lock_acquire>:
30004d00:	00008067          	ret

30004d04 <__sfp_lock_release>:
30004d04:	00008067          	ret

30004d08 <__sinit_lock_acquire>:
30004d08:	00008067          	ret

30004d0c <__sinit_lock_release>:
30004d0c:	00008067          	ret

30004d10 <__fp_lock_all>:
30004d10:	300087b7          	lui	a5,0x30008
30004d14:	b1c7a503          	lw	a0,-1252(a5) # 30007b1c <_impure_ptr>
30004d18:	300055b7          	lui	a1,0x30005
30004d1c:	9a858593          	addi	a1,a1,-1624 # 300049a8 <__fp_lock>
30004d20:	45c0006f          	j	3000517c <_fwalk>

30004d24 <__fp_unlock_all>:
30004d24:	300087b7          	lui	a5,0x30008
30004d28:	b1c7a503          	lw	a0,-1252(a5) # 30007b1c <_impure_ptr>
30004d2c:	300055b7          	lui	a1,0x30005
30004d30:	9bc58593          	addi	a1,a1,-1604 # 300049bc <__fp_unlock>
30004d34:	4480006f          	j	3000517c <_fwalk>

30004d38 <_malloc_trim_r>:
30004d38:	fe010113          	addi	sp,sp,-32
30004d3c:	01312623          	sw	s3,12(sp)
30004d40:	300079b7          	lui	s3,0x30007
30004d44:	00812c23          	sw	s0,24(sp)
30004d48:	00912a23          	sw	s1,20(sp)
30004d4c:	01212823          	sw	s2,16(sp)
30004d50:	01412423          	sw	s4,8(sp)
30004d54:	00112e23          	sw	ra,28(sp)
30004d58:	00058a13          	mv	s4,a1
30004d5c:	00050913          	mv	s2,a0
30004d60:	71098993          	addi	s3,s3,1808 # 30007710 <__malloc_av_>
30004d64:	040010ef          	jal	ra,30005da4 <__malloc_lock>
30004d68:	0089a703          	lw	a4,8(s3)
30004d6c:	000017b7          	lui	a5,0x1
30004d70:	fef78413          	addi	s0,a5,-17 # fef <__stack_size-0x11>
30004d74:	00472483          	lw	s1,4(a4)
30004d78:	ffc4f493          	andi	s1,s1,-4
30004d7c:	00848433          	add	s0,s1,s0
30004d80:	41440433          	sub	s0,s0,s4
30004d84:	00c45413          	srli	s0,s0,0xc
30004d88:	fff40413          	addi	s0,s0,-1
30004d8c:	00c41413          	slli	s0,s0,0xc
30004d90:	00f44e63          	blt	s0,a5,30004dac <_malloc_trim_r+0x74>
30004d94:	00000593          	li	a1,0
30004d98:	00090513          	mv	a0,s2
30004d9c:	010010ef          	jal	ra,30005dac <_sbrk_r>
30004da0:	0089a783          	lw	a5,8(s3)
30004da4:	009787b3          	add	a5,a5,s1
30004da8:	02f50863          	beq	a0,a5,30004dd8 <_malloc_trim_r+0xa0>
30004dac:	00090513          	mv	a0,s2
30004db0:	7f9000ef          	jal	ra,30005da8 <__malloc_unlock>
30004db4:	01c12083          	lw	ra,28(sp)
30004db8:	01812403          	lw	s0,24(sp)
30004dbc:	01412483          	lw	s1,20(sp)
30004dc0:	01012903          	lw	s2,16(sp)
30004dc4:	00c12983          	lw	s3,12(sp)
30004dc8:	00812a03          	lw	s4,8(sp)
30004dcc:	00000513          	li	a0,0
30004dd0:	02010113          	addi	sp,sp,32
30004dd4:	00008067          	ret
30004dd8:	408005b3          	neg	a1,s0
30004ddc:	00090513          	mv	a0,s2
30004de0:	7cd000ef          	jal	ra,30005dac <_sbrk_r>
30004de4:	fff00793          	li	a5,-1
30004de8:	04f50a63          	beq	a0,a5,30004e3c <_malloc_trim_r+0x104>
30004dec:	300187b7          	lui	a5,0x30018
30004df0:	14c78793          	addi	a5,a5,332 # 3001814c <__malloc_current_mallinfo>
30004df4:	0007a703          	lw	a4,0(a5)
30004df8:	0089a683          	lw	a3,8(s3)
30004dfc:	408484b3          	sub	s1,s1,s0
30004e00:	0014e493          	ori	s1,s1,1
30004e04:	40870733          	sub	a4,a4,s0
30004e08:	00090513          	mv	a0,s2
30004e0c:	0096a223          	sw	s1,4(a3)
30004e10:	00e7a023          	sw	a4,0(a5)
30004e14:	795000ef          	jal	ra,30005da8 <__malloc_unlock>
30004e18:	01c12083          	lw	ra,28(sp)
30004e1c:	01812403          	lw	s0,24(sp)
30004e20:	01412483          	lw	s1,20(sp)
30004e24:	01012903          	lw	s2,16(sp)
30004e28:	00c12983          	lw	s3,12(sp)
30004e2c:	00812a03          	lw	s4,8(sp)
30004e30:	00100513          	li	a0,1
30004e34:	02010113          	addi	sp,sp,32
30004e38:	00008067          	ret
30004e3c:	00000593          	li	a1,0
30004e40:	00090513          	mv	a0,s2
30004e44:	769000ef          	jal	ra,30005dac <_sbrk_r>
30004e48:	0089a703          	lw	a4,8(s3)
30004e4c:	00f00693          	li	a3,15
30004e50:	40e507b3          	sub	a5,a0,a4
30004e54:	f4f6dce3          	bge	a3,a5,30004dac <_malloc_trim_r+0x74>
30004e58:	300086b7          	lui	a3,0x30008
30004e5c:	b206a683          	lw	a3,-1248(a3) # 30007b20 <__malloc_sbrk_base>
30004e60:	0017e793          	ori	a5,a5,1
30004e64:	00f72223          	sw	a5,4(a4)
30004e68:	40d50533          	sub	a0,a0,a3
30004e6c:	300186b7          	lui	a3,0x30018
30004e70:	14a6a623          	sw	a0,332(a3) # 3001814c <__malloc_current_mallinfo>
30004e74:	f39ff06f          	j	30004dac <_malloc_trim_r+0x74>

30004e78 <_free_r>:
30004e78:	18058263          	beqz	a1,30004ffc <_free_r+0x184>
30004e7c:	ff010113          	addi	sp,sp,-16
30004e80:	00812423          	sw	s0,8(sp)
30004e84:	00912223          	sw	s1,4(sp)
30004e88:	00058413          	mv	s0,a1
30004e8c:	00050493          	mv	s1,a0
30004e90:	00112623          	sw	ra,12(sp)
30004e94:	711000ef          	jal	ra,30005da4 <__malloc_lock>
30004e98:	ffc42503          	lw	a0,-4(s0)
30004e9c:	ff840713          	addi	a4,s0,-8
30004ea0:	300075b7          	lui	a1,0x30007
30004ea4:	ffe57793          	andi	a5,a0,-2
30004ea8:	00f70633          	add	a2,a4,a5
30004eac:	71058593          	addi	a1,a1,1808 # 30007710 <__malloc_av_>
30004eb0:	00462683          	lw	a3,4(a2)
30004eb4:	0085a803          	lw	a6,8(a1)
30004eb8:	ffc6f693          	andi	a3,a3,-4
30004ebc:	1ac80263          	beq	a6,a2,30005060 <_free_r+0x1e8>
30004ec0:	00d62223          	sw	a3,4(a2)
30004ec4:	00157513          	andi	a0,a0,1
30004ec8:	00d60833          	add	a6,a2,a3
30004ecc:	0a051063          	bnez	a0,30004f6c <_free_r+0xf4>
30004ed0:	ff842303          	lw	t1,-8(s0)
30004ed4:	00482803          	lw	a6,4(a6)
30004ed8:	30007537          	lui	a0,0x30007
30004edc:	40670733          	sub	a4,a4,t1
30004ee0:	00872883          	lw	a7,8(a4)
30004ee4:	71850513          	addi	a0,a0,1816 # 30007718 <__malloc_av_+0x8>
30004ee8:	006787b3          	add	a5,a5,t1
30004eec:	00187813          	andi	a6,a6,1
30004ef0:	14a88263          	beq	a7,a0,30005034 <_free_r+0x1bc>
30004ef4:	00c72303          	lw	t1,12(a4)
30004ef8:	0068a623          	sw	t1,12(a7)
30004efc:	01132423          	sw	a7,8(t1)
30004f00:	1a080663          	beqz	a6,300050ac <_free_r+0x234>
30004f04:	0017e693          	ori	a3,a5,1
30004f08:	00d72223          	sw	a3,4(a4)
30004f0c:	00f62023          	sw	a5,0(a2)
30004f10:	1ff00693          	li	a3,511
30004f14:	06f6ec63          	bltu	a3,a5,30004f8c <_free_r+0x114>
30004f18:	ff87f693          	andi	a3,a5,-8
30004f1c:	00868693          	addi	a3,a3,8
30004f20:	0045a503          	lw	a0,4(a1)
30004f24:	00d586b3          	add	a3,a1,a3
30004f28:	0006a603          	lw	a2,0(a3)
30004f2c:	0057d813          	srli	a6,a5,0x5
30004f30:	00100793          	li	a5,1
30004f34:	010797b3          	sll	a5,a5,a6
30004f38:	00a7e7b3          	or	a5,a5,a0
30004f3c:	ff868513          	addi	a0,a3,-8
30004f40:	00a72623          	sw	a0,12(a4)
30004f44:	00c72423          	sw	a2,8(a4)
30004f48:	00f5a223          	sw	a5,4(a1)
30004f4c:	00e6a023          	sw	a4,0(a3)
30004f50:	00e62623          	sw	a4,12(a2)
30004f54:	00812403          	lw	s0,8(sp)
30004f58:	00c12083          	lw	ra,12(sp)
30004f5c:	00048513          	mv	a0,s1
30004f60:	00412483          	lw	s1,4(sp)
30004f64:	01010113          	addi	sp,sp,16
30004f68:	6410006f          	j	30005da8 <__malloc_unlock>
30004f6c:	00482503          	lw	a0,4(a6)
30004f70:	00157513          	andi	a0,a0,1
30004f74:	08050663          	beqz	a0,30005000 <_free_r+0x188>
30004f78:	0017e693          	ori	a3,a5,1
30004f7c:	fed42e23          	sw	a3,-4(s0)
30004f80:	00f62023          	sw	a5,0(a2)
30004f84:	1ff00693          	li	a3,511
30004f88:	f8f6f8e3          	bgeu	a3,a5,30004f18 <_free_r+0xa0>
30004f8c:	0097d693          	srli	a3,a5,0x9
30004f90:	00400613          	li	a2,4
30004f94:	12d66063          	bltu	a2,a3,300050b4 <_free_r+0x23c>
30004f98:	0067d693          	srli	a3,a5,0x6
30004f9c:	03968513          	addi	a0,a3,57
30004fa0:	03868613          	addi	a2,a3,56
30004fa4:	00351513          	slli	a0,a0,0x3
30004fa8:	00a58533          	add	a0,a1,a0
30004fac:	00052683          	lw	a3,0(a0)
30004fb0:	ff850513          	addi	a0,a0,-8
30004fb4:	00d51863          	bne	a0,a3,30004fc4 <_free_r+0x14c>
30004fb8:	1540006f          	j	3000510c <_free_r+0x294>
30004fbc:	0086a683          	lw	a3,8(a3)
30004fc0:	00d50863          	beq	a0,a3,30004fd0 <_free_r+0x158>
30004fc4:	0046a603          	lw	a2,4(a3)
30004fc8:	ffc67613          	andi	a2,a2,-4
30004fcc:	fec7e8e3          	bltu	a5,a2,30004fbc <_free_r+0x144>
30004fd0:	00c6a503          	lw	a0,12(a3)
30004fd4:	00a72623          	sw	a0,12(a4)
30004fd8:	00d72423          	sw	a3,8(a4)
30004fdc:	00812403          	lw	s0,8(sp)
30004fe0:	00e52423          	sw	a4,8(a0)
30004fe4:	00c12083          	lw	ra,12(sp)
30004fe8:	00048513          	mv	a0,s1
30004fec:	00412483          	lw	s1,4(sp)
30004ff0:	00e6a623          	sw	a4,12(a3)
30004ff4:	01010113          	addi	sp,sp,16
30004ff8:	5b10006f          	j	30005da8 <__malloc_unlock>
30004ffc:	00008067          	ret
30005000:	30007537          	lui	a0,0x30007
30005004:	00d787b3          	add	a5,a5,a3
30005008:	71850513          	addi	a0,a0,1816 # 30007718 <__malloc_av_+0x8>
3000500c:	00862683          	lw	a3,8(a2)
30005010:	0ca68c63          	beq	a3,a0,300050e8 <_free_r+0x270>
30005014:	00c62803          	lw	a6,12(a2)
30005018:	0017e513          	ori	a0,a5,1
3000501c:	00f70633          	add	a2,a4,a5
30005020:	0106a623          	sw	a6,12(a3)
30005024:	00d82423          	sw	a3,8(a6)
30005028:	00a72223          	sw	a0,4(a4)
3000502c:	00f62023          	sw	a5,0(a2)
30005030:	ee1ff06f          	j	30004f10 <_free_r+0x98>
30005034:	12081c63          	bnez	a6,3000516c <_free_r+0x2f4>
30005038:	00862583          	lw	a1,8(a2)
3000503c:	00c62603          	lw	a2,12(a2)
30005040:	00f686b3          	add	a3,a3,a5
30005044:	0016e793          	ori	a5,a3,1
30005048:	00c5a623          	sw	a2,12(a1)
3000504c:	00b62423          	sw	a1,8(a2)
30005050:	00f72223          	sw	a5,4(a4)
30005054:	00d70733          	add	a4,a4,a3
30005058:	00d72023          	sw	a3,0(a4)
3000505c:	ef9ff06f          	j	30004f54 <_free_r+0xdc>
30005060:	00157513          	andi	a0,a0,1
30005064:	00d786b3          	add	a3,a5,a3
30005068:	02051063          	bnez	a0,30005088 <_free_r+0x210>
3000506c:	ff842503          	lw	a0,-8(s0)
30005070:	40a70733          	sub	a4,a4,a0
30005074:	00c72783          	lw	a5,12(a4)
30005078:	00872603          	lw	a2,8(a4)
3000507c:	00a686b3          	add	a3,a3,a0
30005080:	00f62623          	sw	a5,12(a2)
30005084:	00c7a423          	sw	a2,8(a5)
30005088:	0016e613          	ori	a2,a3,1
3000508c:	80c1a783          	lw	a5,-2036(gp) # 30007b24 <__malloc_trim_threshold>
30005090:	00c72223          	sw	a2,4(a4)
30005094:	00e5a423          	sw	a4,8(a1)
30005098:	eaf6eee3          	bltu	a3,a5,30004f54 <_free_r+0xdc>
3000509c:	8281a583          	lw	a1,-2008(gp) # 30007b40 <__malloc_top_pad>
300050a0:	00048513          	mv	a0,s1
300050a4:	c95ff0ef          	jal	ra,30004d38 <_malloc_trim_r>
300050a8:	eadff06f          	j	30004f54 <_free_r+0xdc>
300050ac:	00d787b3          	add	a5,a5,a3
300050b0:	f5dff06f          	j	3000500c <_free_r+0x194>
300050b4:	01400613          	li	a2,20
300050b8:	02d67063          	bgeu	a2,a3,300050d8 <_free_r+0x260>
300050bc:	05400613          	li	a2,84
300050c0:	06d66463          	bltu	a2,a3,30005128 <_free_r+0x2b0>
300050c4:	00c7d693          	srli	a3,a5,0xc
300050c8:	06f68513          	addi	a0,a3,111
300050cc:	06e68613          	addi	a2,a3,110
300050d0:	00351513          	slli	a0,a0,0x3
300050d4:	ed5ff06f          	j	30004fa8 <_free_r+0x130>
300050d8:	05c68513          	addi	a0,a3,92
300050dc:	05b68613          	addi	a2,a3,91
300050e0:	00351513          	slli	a0,a0,0x3
300050e4:	ec5ff06f          	j	30004fa8 <_free_r+0x130>
300050e8:	00e5aa23          	sw	a4,20(a1)
300050ec:	00e5a823          	sw	a4,16(a1)
300050f0:	0017e693          	ori	a3,a5,1
300050f4:	00a72623          	sw	a0,12(a4)
300050f8:	00a72423          	sw	a0,8(a4)
300050fc:	00d72223          	sw	a3,4(a4)
30005100:	00f70733          	add	a4,a4,a5
30005104:	00f72023          	sw	a5,0(a4)
30005108:	e4dff06f          	j	30004f54 <_free_r+0xdc>
3000510c:	0045a803          	lw	a6,4(a1)
30005110:	40265613          	srai	a2,a2,0x2
30005114:	00100793          	li	a5,1
30005118:	00c797b3          	sll	a5,a5,a2
3000511c:	0107e7b3          	or	a5,a5,a6
30005120:	00f5a223          	sw	a5,4(a1)
30005124:	eb1ff06f          	j	30004fd4 <_free_r+0x15c>
30005128:	15400613          	li	a2,340
3000512c:	00d66c63          	bltu	a2,a3,30005144 <_free_r+0x2cc>
30005130:	00f7d693          	srli	a3,a5,0xf
30005134:	07868513          	addi	a0,a3,120
30005138:	07768613          	addi	a2,a3,119
3000513c:	00351513          	slli	a0,a0,0x3
30005140:	e69ff06f          	j	30004fa8 <_free_r+0x130>
30005144:	55400613          	li	a2,1364
30005148:	00d66c63          	bltu	a2,a3,30005160 <_free_r+0x2e8>
3000514c:	0127d693          	srli	a3,a5,0x12
30005150:	07d68513          	addi	a0,a3,125
30005154:	07c68613          	addi	a2,a3,124
30005158:	00351513          	slli	a0,a0,0x3
3000515c:	e4dff06f          	j	30004fa8 <_free_r+0x130>
30005160:	3f800513          	li	a0,1016
30005164:	07e00613          	li	a2,126
30005168:	e41ff06f          	j	30004fa8 <_free_r+0x130>
3000516c:	0017e693          	ori	a3,a5,1
30005170:	00d72223          	sw	a3,4(a4)
30005174:	00f62023          	sw	a5,0(a2)
30005178:	dddff06f          	j	30004f54 <_free_r+0xdc>

3000517c <_fwalk>:
3000517c:	fe010113          	addi	sp,sp,-32
30005180:	01212823          	sw	s2,16(sp)
30005184:	01312623          	sw	s3,12(sp)
30005188:	01412423          	sw	s4,8(sp)
3000518c:	01512223          	sw	s5,4(sp)
30005190:	01612023          	sw	s6,0(sp)
30005194:	00112e23          	sw	ra,28(sp)
30005198:	00812c23          	sw	s0,24(sp)
3000519c:	00912a23          	sw	s1,20(sp)
300051a0:	00058b13          	mv	s6,a1
300051a4:	2e050a93          	addi	s5,a0,736
300051a8:	00000a13          	li	s4,0
300051ac:	00100993          	li	s3,1
300051b0:	fff00913          	li	s2,-1
300051b4:	004aa483          	lw	s1,4(s5)
300051b8:	008aa403          	lw	s0,8(s5)
300051bc:	fff48493          	addi	s1,s1,-1
300051c0:	0204c663          	bltz	s1,300051ec <_fwalk+0x70>
300051c4:	00c45783          	lhu	a5,12(s0)
300051c8:	fff48493          	addi	s1,s1,-1
300051cc:	00f9fc63          	bgeu	s3,a5,300051e4 <_fwalk+0x68>
300051d0:	00e41783          	lh	a5,14(s0)
300051d4:	00040513          	mv	a0,s0
300051d8:	01278663          	beq	a5,s2,300051e4 <_fwalk+0x68>
300051dc:	000b00e7          	jalr	s6
300051e0:	00aa6a33          	or	s4,s4,a0
300051e4:	06840413          	addi	s0,s0,104
300051e8:	fd249ee3          	bne	s1,s2,300051c4 <_fwalk+0x48>
300051ec:	000aaa83          	lw	s5,0(s5)
300051f0:	fc0a92e3          	bnez	s5,300051b4 <_fwalk+0x38>
300051f4:	01c12083          	lw	ra,28(sp)
300051f8:	01812403          	lw	s0,24(sp)
300051fc:	01412483          	lw	s1,20(sp)
30005200:	01012903          	lw	s2,16(sp)
30005204:	00c12983          	lw	s3,12(sp)
30005208:	00412a83          	lw	s5,4(sp)
3000520c:	00012b03          	lw	s6,0(sp)
30005210:	000a0513          	mv	a0,s4
30005214:	00812a03          	lw	s4,8(sp)
30005218:	02010113          	addi	sp,sp,32
3000521c:	00008067          	ret

30005220 <_fwalk_reent>:
30005220:	fd010113          	addi	sp,sp,-48
30005224:	03212023          	sw	s2,32(sp)
30005228:	01312e23          	sw	s3,28(sp)
3000522c:	01412c23          	sw	s4,24(sp)
30005230:	01512a23          	sw	s5,20(sp)
30005234:	01612823          	sw	s6,16(sp)
30005238:	01712623          	sw	s7,12(sp)
3000523c:	02112623          	sw	ra,44(sp)
30005240:	02812423          	sw	s0,40(sp)
30005244:	02912223          	sw	s1,36(sp)
30005248:	00050a93          	mv	s5,a0
3000524c:	00058b93          	mv	s7,a1
30005250:	2e050b13          	addi	s6,a0,736
30005254:	00000a13          	li	s4,0
30005258:	00100993          	li	s3,1
3000525c:	fff00913          	li	s2,-1
30005260:	004b2483          	lw	s1,4(s6)
30005264:	008b2403          	lw	s0,8(s6)
30005268:	fff48493          	addi	s1,s1,-1
3000526c:	0204c863          	bltz	s1,3000529c <_fwalk_reent+0x7c>
30005270:	00c45783          	lhu	a5,12(s0)
30005274:	fff48493          	addi	s1,s1,-1
30005278:	00f9fe63          	bgeu	s3,a5,30005294 <_fwalk_reent+0x74>
3000527c:	00e41783          	lh	a5,14(s0)
30005280:	00040593          	mv	a1,s0
30005284:	000a8513          	mv	a0,s5
30005288:	01278663          	beq	a5,s2,30005294 <_fwalk_reent+0x74>
3000528c:	000b80e7          	jalr	s7
30005290:	00aa6a33          	or	s4,s4,a0
30005294:	06840413          	addi	s0,s0,104
30005298:	fd249ce3          	bne	s1,s2,30005270 <_fwalk_reent+0x50>
3000529c:	000b2b03          	lw	s6,0(s6)
300052a0:	fc0b10e3          	bnez	s6,30005260 <_fwalk_reent+0x40>
300052a4:	02c12083          	lw	ra,44(sp)
300052a8:	02812403          	lw	s0,40(sp)
300052ac:	02412483          	lw	s1,36(sp)
300052b0:	02012903          	lw	s2,32(sp)
300052b4:	01c12983          	lw	s3,28(sp)
300052b8:	01412a83          	lw	s5,20(sp)
300052bc:	01012b03          	lw	s6,16(sp)
300052c0:	00c12b83          	lw	s7,12(sp)
300052c4:	000a0513          	mv	a0,s4
300052c8:	01812a03          	lw	s4,24(sp)
300052cc:	03010113          	addi	sp,sp,48
300052d0:	00008067          	ret

300052d4 <__smakebuf_r>:
300052d4:	00c59783          	lh	a5,12(a1)
300052d8:	f8010113          	addi	sp,sp,-128
300052dc:	06812c23          	sw	s0,120(sp)
300052e0:	06112e23          	sw	ra,124(sp)
300052e4:	06912a23          	sw	s1,116(sp)
300052e8:	07212823          	sw	s2,112(sp)
300052ec:	07312623          	sw	s3,108(sp)
300052f0:	07412423          	sw	s4,104(sp)
300052f4:	0027f713          	andi	a4,a5,2
300052f8:	00058413          	mv	s0,a1
300052fc:	02070c63          	beqz	a4,30005334 <__smakebuf_r+0x60>
30005300:	04358793          	addi	a5,a1,67
30005304:	00f5a023          	sw	a5,0(a1)
30005308:	00f5a823          	sw	a5,16(a1)
3000530c:	00100793          	li	a5,1
30005310:	00f5aa23          	sw	a5,20(a1)
30005314:	07c12083          	lw	ra,124(sp)
30005318:	07812403          	lw	s0,120(sp)
3000531c:	07412483          	lw	s1,116(sp)
30005320:	07012903          	lw	s2,112(sp)
30005324:	06c12983          	lw	s3,108(sp)
30005328:	06812a03          	lw	s4,104(sp)
3000532c:	08010113          	addi	sp,sp,128
30005330:	00008067          	ret
30005334:	00e59583          	lh	a1,14(a1)
30005338:	00050493          	mv	s1,a0
3000533c:	0805cc63          	bltz	a1,300053d4 <__smakebuf_r+0x100>
30005340:	00810613          	addi	a2,sp,8
30005344:	615000ef          	jal	ra,30006158 <_fstat_r>
30005348:	08054463          	bltz	a0,300053d0 <__smakebuf_r+0xfc>
3000534c:	00c12783          	lw	a5,12(sp)
30005350:	0000f937          	lui	s2,0xf
30005354:	000019b7          	lui	s3,0x1
30005358:	00f97933          	and	s2,s2,a5
3000535c:	ffffe7b7          	lui	a5,0xffffe
30005360:	00f90933          	add	s2,s2,a5
30005364:	00193913          	seqz	s2,s2
30005368:	40000a13          	li	s4,1024
3000536c:	80098993          	addi	s3,s3,-2048 # 800 <__stack_size-0x800>
30005370:	000a0593          	mv	a1,s4
30005374:	00048513          	mv	a0,s1
30005378:	1c4000ef          	jal	ra,3000553c <_malloc_r>
3000537c:	00c41783          	lh	a5,12(s0)
30005380:	06050e63          	beqz	a0,300053fc <__smakebuf_r+0x128>
30005384:	30005737          	lui	a4,0x30005
30005388:	9b070713          	addi	a4,a4,-1616 # 300049b0 <_cleanup_r>
3000538c:	02e4ae23          	sw	a4,60(s1)
30005390:	0807e793          	ori	a5,a5,128
30005394:	00f41623          	sh	a5,12(s0)
30005398:	00a42023          	sw	a0,0(s0)
3000539c:	00a42823          	sw	a0,16(s0)
300053a0:	01442a23          	sw	s4,20(s0)
300053a4:	08091863          	bnez	s2,30005434 <__smakebuf_r+0x160>
300053a8:	0137e7b3          	or	a5,a5,s3
300053ac:	07c12083          	lw	ra,124(sp)
300053b0:	00f41623          	sh	a5,12(s0)
300053b4:	07812403          	lw	s0,120(sp)
300053b8:	07412483          	lw	s1,116(sp)
300053bc:	07012903          	lw	s2,112(sp)
300053c0:	06c12983          	lw	s3,108(sp)
300053c4:	06812a03          	lw	s4,104(sp)
300053c8:	08010113          	addi	sp,sp,128
300053cc:	00008067          	ret
300053d0:	00c41783          	lh	a5,12(s0)
300053d4:	0807f793          	andi	a5,a5,128
300053d8:	00000913          	li	s2,0
300053dc:	04078663          	beqz	a5,30005428 <__smakebuf_r+0x154>
300053e0:	04000a13          	li	s4,64
300053e4:	000a0593          	mv	a1,s4
300053e8:	00048513          	mv	a0,s1
300053ec:	150000ef          	jal	ra,3000553c <_malloc_r>
300053f0:	00c41783          	lh	a5,12(s0)
300053f4:	00000993          	li	s3,0
300053f8:	f80516e3          	bnez	a0,30005384 <__smakebuf_r+0xb0>
300053fc:	2007f713          	andi	a4,a5,512
30005400:	f0071ae3          	bnez	a4,30005314 <__smakebuf_r+0x40>
30005404:	ffc7f793          	andi	a5,a5,-4
30005408:	0027e793          	ori	a5,a5,2
3000540c:	04340713          	addi	a4,s0,67
30005410:	00f41623          	sh	a5,12(s0)
30005414:	00100793          	li	a5,1
30005418:	00e42023          	sw	a4,0(s0)
3000541c:	00e42823          	sw	a4,16(s0)
30005420:	00f42a23          	sw	a5,20(s0)
30005424:	ef1ff06f          	j	30005314 <__smakebuf_r+0x40>
30005428:	40000a13          	li	s4,1024
3000542c:	00000993          	li	s3,0
30005430:	f41ff06f          	j	30005370 <__smakebuf_r+0x9c>
30005434:	00e41583          	lh	a1,14(s0)
30005438:	00048513          	mv	a0,s1
3000543c:	581000ef          	jal	ra,300061bc <_isatty_r>
30005440:	00051663          	bnez	a0,3000544c <__smakebuf_r+0x178>
30005444:	00c41783          	lh	a5,12(s0)
30005448:	f61ff06f          	j	300053a8 <__smakebuf_r+0xd4>
3000544c:	00c45783          	lhu	a5,12(s0)
30005450:	ffc7f793          	andi	a5,a5,-4
30005454:	0017e793          	ori	a5,a5,1
30005458:	01079793          	slli	a5,a5,0x10
3000545c:	4107d793          	srai	a5,a5,0x10
30005460:	f49ff06f          	j	300053a8 <__smakebuf_r+0xd4>

30005464 <__swhatbuf_r>:
30005464:	f9010113          	addi	sp,sp,-112
30005468:	06812423          	sw	s0,104(sp)
3000546c:	00058413          	mv	s0,a1
30005470:	00e59583          	lh	a1,14(a1)
30005474:	06912223          	sw	s1,100(sp)
30005478:	07212023          	sw	s2,96(sp)
3000547c:	06112623          	sw	ra,108(sp)
30005480:	00060493          	mv	s1,a2
30005484:	00068913          	mv	s2,a3
30005488:	0405ca63          	bltz	a1,300054dc <__swhatbuf_r+0x78>
3000548c:	00810613          	addi	a2,sp,8
30005490:	4c9000ef          	jal	ra,30006158 <_fstat_r>
30005494:	04054463          	bltz	a0,300054dc <__swhatbuf_r+0x78>
30005498:	00c12703          	lw	a4,12(sp)
3000549c:	0000f7b7          	lui	a5,0xf
300054a0:	06c12083          	lw	ra,108(sp)
300054a4:	00e7f7b3          	and	a5,a5,a4
300054a8:	ffffe737          	lui	a4,0xffffe
300054ac:	00e787b3          	add	a5,a5,a4
300054b0:	06812403          	lw	s0,104(sp)
300054b4:	0017b793          	seqz	a5,a5
300054b8:	00f92023          	sw	a5,0(s2) # f000 <__stack_size+0xe000>
300054bc:	40000713          	li	a4,1024
300054c0:	00e4a023          	sw	a4,0(s1)
300054c4:	00001537          	lui	a0,0x1
300054c8:	06412483          	lw	s1,100(sp)
300054cc:	06012903          	lw	s2,96(sp)
300054d0:	80050513          	addi	a0,a0,-2048 # 800 <__stack_size-0x800>
300054d4:	07010113          	addi	sp,sp,112
300054d8:	00008067          	ret
300054dc:	00c45783          	lhu	a5,12(s0)
300054e0:	0807f793          	andi	a5,a5,128
300054e4:	02078863          	beqz	a5,30005514 <__swhatbuf_r+0xb0>
300054e8:	06c12083          	lw	ra,108(sp)
300054ec:	06812403          	lw	s0,104(sp)
300054f0:	00000793          	li	a5,0
300054f4:	00f92023          	sw	a5,0(s2)
300054f8:	04000713          	li	a4,64
300054fc:	00e4a023          	sw	a4,0(s1)
30005500:	06012903          	lw	s2,96(sp)
30005504:	06412483          	lw	s1,100(sp)
30005508:	00000513          	li	a0,0
3000550c:	07010113          	addi	sp,sp,112
30005510:	00008067          	ret
30005514:	06c12083          	lw	ra,108(sp)
30005518:	06812403          	lw	s0,104(sp)
3000551c:	00f92023          	sw	a5,0(s2)
30005520:	40000713          	li	a4,1024
30005524:	00e4a023          	sw	a4,0(s1)
30005528:	06012903          	lw	s2,96(sp)
3000552c:	06412483          	lw	s1,100(sp)
30005530:	00000513          	li	a0,0
30005534:	07010113          	addi	sp,sp,112
30005538:	00008067          	ret

3000553c <_malloc_r>:
3000553c:	fd010113          	addi	sp,sp,-48
30005540:	01312e23          	sw	s3,28(sp)
30005544:	02112623          	sw	ra,44(sp)
30005548:	02812423          	sw	s0,40(sp)
3000554c:	02912223          	sw	s1,36(sp)
30005550:	03212023          	sw	s2,32(sp)
30005554:	01412c23          	sw	s4,24(sp)
30005558:	01512a23          	sw	s5,20(sp)
3000555c:	01612823          	sw	s6,16(sp)
30005560:	01712623          	sw	s7,12(sp)
30005564:	01812423          	sw	s8,8(sp)
30005568:	01912223          	sw	s9,4(sp)
3000556c:	00b58793          	addi	a5,a1,11
30005570:	01600713          	li	a4,22
30005574:	00050993          	mv	s3,a0
30005578:	08f76e63          	bltu	a4,a5,30005614 <_malloc_r+0xd8>
3000557c:	01000793          	li	a5,16
30005580:	22b7e063          	bltu	a5,a1,300057a0 <_malloc_r+0x264>
30005584:	021000ef          	jal	ra,30005da4 <__malloc_lock>
30005588:	01000493          	li	s1,16
3000558c:	01800793          	li	a5,24
30005590:	00200593          	li	a1,2
30005594:	30007937          	lui	s2,0x30007
30005598:	71090913          	addi	s2,s2,1808 # 30007710 <__malloc_av_>
3000559c:	00f907b3          	add	a5,s2,a5
300055a0:	0047a403          	lw	s0,4(a5) # f004 <__stack_size+0xe004>
300055a4:	ff878713          	addi	a4,a5,-8
300055a8:	30e40863          	beq	s0,a4,300058b8 <_malloc_r+0x37c>
300055ac:	00442783          	lw	a5,4(s0)
300055b0:	00c42683          	lw	a3,12(s0)
300055b4:	00842603          	lw	a2,8(s0)
300055b8:	ffc7f793          	andi	a5,a5,-4
300055bc:	00f407b3          	add	a5,s0,a5
300055c0:	0047a703          	lw	a4,4(a5)
300055c4:	00d62623          	sw	a3,12(a2)
300055c8:	00c6a423          	sw	a2,8(a3)
300055cc:	00176713          	ori	a4,a4,1
300055d0:	00098513          	mv	a0,s3
300055d4:	00e7a223          	sw	a4,4(a5)
300055d8:	7d0000ef          	jal	ra,30005da8 <__malloc_unlock>
300055dc:	00840513          	addi	a0,s0,8
300055e0:	02c12083          	lw	ra,44(sp)
300055e4:	02812403          	lw	s0,40(sp)
300055e8:	02412483          	lw	s1,36(sp)
300055ec:	02012903          	lw	s2,32(sp)
300055f0:	01c12983          	lw	s3,28(sp)
300055f4:	01812a03          	lw	s4,24(sp)
300055f8:	01412a83          	lw	s5,20(sp)
300055fc:	01012b03          	lw	s6,16(sp)
30005600:	00c12b83          	lw	s7,12(sp)
30005604:	00812c03          	lw	s8,8(sp)
30005608:	00412c83          	lw	s9,4(sp)
3000560c:	03010113          	addi	sp,sp,48
30005610:	00008067          	ret
30005614:	ff87f493          	andi	s1,a5,-8
30005618:	1807c463          	bltz	a5,300057a0 <_malloc_r+0x264>
3000561c:	18b4e263          	bltu	s1,a1,300057a0 <_malloc_r+0x264>
30005620:	784000ef          	jal	ra,30005da4 <__malloc_lock>
30005624:	1f700793          	li	a5,503
30005628:	3a97f263          	bgeu	a5,s1,300059cc <_malloc_r+0x490>
3000562c:	0094d793          	srli	a5,s1,0x9
30005630:	18078063          	beqz	a5,300057b0 <_malloc_r+0x274>
30005634:	00400713          	li	a4,4
30005638:	2ef76863          	bltu	a4,a5,30005928 <_malloc_r+0x3ec>
3000563c:	0064d793          	srli	a5,s1,0x6
30005640:	03978593          	addi	a1,a5,57
30005644:	03878513          	addi	a0,a5,56
30005648:	00359693          	slli	a3,a1,0x3
3000564c:	30007937          	lui	s2,0x30007
30005650:	71090913          	addi	s2,s2,1808 # 30007710 <__malloc_av_>
30005654:	00d906b3          	add	a3,s2,a3
30005658:	0046a403          	lw	s0,4(a3)
3000565c:	ff868693          	addi	a3,a3,-8
30005660:	02868663          	beq	a3,s0,3000568c <_malloc_r+0x150>
30005664:	00f00613          	li	a2,15
30005668:	0100006f          	j	30005678 <_malloc_r+0x13c>
3000566c:	24075063          	bgez	a4,300058ac <_malloc_r+0x370>
30005670:	00c42403          	lw	s0,12(s0)
30005674:	00868c63          	beq	a3,s0,3000568c <_malloc_r+0x150>
30005678:	00442783          	lw	a5,4(s0)
3000567c:	ffc7f793          	andi	a5,a5,-4
30005680:	40978733          	sub	a4,a5,s1
30005684:	fee654e3          	bge	a2,a4,3000566c <_malloc_r+0x130>
30005688:	00050593          	mv	a1,a0
3000568c:	01092403          	lw	s0,16(s2)
30005690:	30007837          	lui	a6,0x30007
30005694:	71880813          	addi	a6,a6,1816 # 30007718 <__malloc_av_+0x8>
30005698:	1f040263          	beq	s0,a6,3000587c <_malloc_r+0x340>
3000569c:	00442783          	lw	a5,4(s0)
300056a0:	00f00693          	li	a3,15
300056a4:	ffc7f793          	andi	a5,a5,-4
300056a8:	40978733          	sub	a4,a5,s1
300056ac:	32e6c663          	blt	a3,a4,300059d8 <_malloc_r+0x49c>
300056b0:	01092a23          	sw	a6,20(s2)
300056b4:	01092823          	sw	a6,16(s2)
300056b8:	2e075a63          	bgez	a4,300059ac <_malloc_r+0x470>
300056bc:	1ff00713          	li	a4,511
300056c0:	00492503          	lw	a0,4(s2)
300056c4:	20f76263          	bltu	a4,a5,300058c8 <_malloc_r+0x38c>
300056c8:	ff87f713          	andi	a4,a5,-8
300056cc:	00870713          	addi	a4,a4,8 # ffffe008 <_sp+0xcfefe008>
300056d0:	00e90733          	add	a4,s2,a4
300056d4:	00072683          	lw	a3,0(a4)
300056d8:	0057d613          	srli	a2,a5,0x5
300056dc:	00100793          	li	a5,1
300056e0:	00c797b3          	sll	a5,a5,a2
300056e4:	00f56533          	or	a0,a0,a5
300056e8:	ff870793          	addi	a5,a4,-8
300056ec:	00f42623          	sw	a5,12(s0)
300056f0:	00d42423          	sw	a3,8(s0)
300056f4:	00a92223          	sw	a0,4(s2)
300056f8:	00872023          	sw	s0,0(a4)
300056fc:	0086a623          	sw	s0,12(a3)
30005700:	4025d793          	srai	a5,a1,0x2
30005704:	00100613          	li	a2,1
30005708:	00f61633          	sll	a2,a2,a5
3000570c:	0ac56a63          	bltu	a0,a2,300057c0 <_malloc_r+0x284>
30005710:	00a677b3          	and	a5,a2,a0
30005714:	02079463          	bnez	a5,3000573c <_malloc_r+0x200>
30005718:	00161613          	slli	a2,a2,0x1
3000571c:	ffc5f593          	andi	a1,a1,-4
30005720:	00a677b3          	and	a5,a2,a0
30005724:	00458593          	addi	a1,a1,4
30005728:	00079a63          	bnez	a5,3000573c <_malloc_r+0x200>
3000572c:	00161613          	slli	a2,a2,0x1
30005730:	00a677b3          	and	a5,a2,a0
30005734:	00458593          	addi	a1,a1,4
30005738:	fe078ae3          	beqz	a5,3000572c <_malloc_r+0x1f0>
3000573c:	00f00893          	li	a7,15
30005740:	00359313          	slli	t1,a1,0x3
30005744:	00690333          	add	t1,s2,t1
30005748:	00030513          	mv	a0,t1
3000574c:	00c52783          	lw	a5,12(a0)
30005750:	00058e13          	mv	t3,a1
30005754:	1ef50c63          	beq	a0,a5,3000594c <_malloc_r+0x410>
30005758:	0047a703          	lw	a4,4(a5)
3000575c:	00078413          	mv	s0,a5
30005760:	00c7a783          	lw	a5,12(a5)
30005764:	ffc77713          	andi	a4,a4,-4
30005768:	409706b3          	sub	a3,a4,s1
3000576c:	1ed8cc63          	blt	a7,a3,30005964 <_malloc_r+0x428>
30005770:	fe06c2e3          	bltz	a3,30005754 <_malloc_r+0x218>
30005774:	00e40733          	add	a4,s0,a4
30005778:	00472683          	lw	a3,4(a4)
3000577c:	00842603          	lw	a2,8(s0)
30005780:	00098513          	mv	a0,s3
30005784:	0016e693          	ori	a3,a3,1
30005788:	00d72223          	sw	a3,4(a4)
3000578c:	00f62623          	sw	a5,12(a2)
30005790:	00c7a423          	sw	a2,8(a5)
30005794:	614000ef          	jal	ra,30005da8 <__malloc_unlock>
30005798:	00840513          	addi	a0,s0,8
3000579c:	e45ff06f          	j	300055e0 <_malloc_r+0xa4>
300057a0:	00c00793          	li	a5,12
300057a4:	00f9a023          	sw	a5,0(s3)
300057a8:	00000513          	li	a0,0
300057ac:	e35ff06f          	j	300055e0 <_malloc_r+0xa4>
300057b0:	20000693          	li	a3,512
300057b4:	04000593          	li	a1,64
300057b8:	03f00513          	li	a0,63
300057bc:	e91ff06f          	j	3000564c <_malloc_r+0x110>
300057c0:	00892403          	lw	s0,8(s2)
300057c4:	00442783          	lw	a5,4(s0)
300057c8:	ffc7fb13          	andi	s6,a5,-4
300057cc:	009b6863          	bltu	s6,s1,300057dc <_malloc_r+0x2a0>
300057d0:	409b0733          	sub	a4,s6,s1
300057d4:	00f00793          	li	a5,15
300057d8:	0ae7c663          	blt	a5,a4,30005884 <_malloc_r+0x348>
300057dc:	30008cb7          	lui	s9,0x30008
300057e0:	8281aa83          	lw	s5,-2008(gp) # 30007b40 <__malloc_top_pad>
300057e4:	b20ca703          	lw	a4,-1248(s9) # 30007b20 <__malloc_sbrk_base>
300057e8:	fff00793          	li	a5,-1
300057ec:	01640a33          	add	s4,s0,s6
300057f0:	01548ab3          	add	s5,s1,s5
300057f4:	3af70863          	beq	a4,a5,30005ba4 <_malloc_r+0x668>
300057f8:	000017b7          	lui	a5,0x1
300057fc:	00f78793          	addi	a5,a5,15 # 100f <__stack_size+0xf>
30005800:	00fa8ab3          	add	s5,s5,a5
30005804:	fffff7b7          	lui	a5,0xfffff
30005808:	00fafab3          	and	s5,s5,a5
3000580c:	000a8593          	mv	a1,s5
30005810:	00098513          	mv	a0,s3
30005814:	598000ef          	jal	ra,30005dac <_sbrk_r>
30005818:	fff00793          	li	a5,-1
3000581c:	00050b93          	mv	s7,a0
30005820:	20f50663          	beq	a0,a5,30005a2c <_malloc_r+0x4f0>
30005824:	21456263          	bltu	a0,s4,30005a28 <_malloc_r+0x4ec>
30005828:	30018c37          	lui	s8,0x30018
3000582c:	14cc0c13          	addi	s8,s8,332 # 3001814c <__malloc_current_mallinfo>
30005830:	000c2583          	lw	a1,0(s8)
30005834:	00ba85b3          	add	a1,s5,a1
30005838:	00bc2023          	sw	a1,0(s8)
3000583c:	00058713          	mv	a4,a1
30005840:	28aa1863          	bne	s4,a0,30005ad0 <_malloc_r+0x594>
30005844:	01451793          	slli	a5,a0,0x14
30005848:	28079463          	bnez	a5,30005ad0 <_malloc_r+0x594>
3000584c:	00892b83          	lw	s7,8(s2)
30005850:	015b07b3          	add	a5,s6,s5
30005854:	0017e793          	ori	a5,a5,1
30005858:	00fba223          	sw	a5,4(s7)
3000585c:	8241a683          	lw	a3,-2012(gp) # 30007b3c <__malloc_max_sbrked_mem>
30005860:	00b6f463          	bgeu	a3,a1,30005868 <_malloc_r+0x32c>
30005864:	82b1a223          	sw	a1,-2012(gp) # 30007b3c <__malloc_max_sbrked_mem>
30005868:	8201a683          	lw	a3,-2016(gp) # 30007b38 <__malloc_max_total_mem>
3000586c:	00b6f463          	bgeu	a3,a1,30005874 <_malloc_r+0x338>
30005870:	82b1a023          	sw	a1,-2016(gp) # 30007b38 <__malloc_max_total_mem>
30005874:	000b8413          	mv	s0,s7
30005878:	1bc0006f          	j	30005a34 <_malloc_r+0x4f8>
3000587c:	00492503          	lw	a0,4(s2)
30005880:	e81ff06f          	j	30005700 <_malloc_r+0x1c4>
30005884:	0014e793          	ori	a5,s1,1
30005888:	00f42223          	sw	a5,4(s0)
3000588c:	009404b3          	add	s1,s0,s1
30005890:	00992423          	sw	s1,8(s2)
30005894:	00176713          	ori	a4,a4,1
30005898:	00098513          	mv	a0,s3
3000589c:	00e4a223          	sw	a4,4(s1)
300058a0:	508000ef          	jal	ra,30005da8 <__malloc_unlock>
300058a4:	00840513          	addi	a0,s0,8
300058a8:	d39ff06f          	j	300055e0 <_malloc_r+0xa4>
300058ac:	00c42683          	lw	a3,12(s0)
300058b0:	00842603          	lw	a2,8(s0)
300058b4:	d09ff06f          	j	300055bc <_malloc_r+0x80>
300058b8:	00c7a403          	lw	s0,12(a5) # fffff00c <_sp+0xcfeff00c>
300058bc:	00258593          	addi	a1,a1,2
300058c0:	dc8786e3          	beq	a5,s0,3000568c <_malloc_r+0x150>
300058c4:	ce9ff06f          	j	300055ac <_malloc_r+0x70>
300058c8:	0097d713          	srli	a4,a5,0x9
300058cc:	00400693          	li	a3,4
300058d0:	14e6f263          	bgeu	a3,a4,30005a14 <_malloc_r+0x4d8>
300058d4:	01400693          	li	a3,20
300058d8:	30e6ec63          	bltu	a3,a4,30005bf0 <_malloc_r+0x6b4>
300058dc:	05c70613          	addi	a2,a4,92
300058e0:	05b70693          	addi	a3,a4,91
300058e4:	00361613          	slli	a2,a2,0x3
300058e8:	00c90633          	add	a2,s2,a2
300058ec:	00062703          	lw	a4,0(a2)
300058f0:	ff860613          	addi	a2,a2,-8
300058f4:	00e61863          	bne	a2,a4,30005904 <_malloc_r+0x3c8>
300058f8:	2b40006f          	j	30005bac <_malloc_r+0x670>
300058fc:	00872703          	lw	a4,8(a4)
30005900:	00e60863          	beq	a2,a4,30005910 <_malloc_r+0x3d4>
30005904:	00472683          	lw	a3,4(a4)
30005908:	ffc6f693          	andi	a3,a3,-4
3000590c:	fed7e8e3          	bltu	a5,a3,300058fc <_malloc_r+0x3c0>
30005910:	00c72603          	lw	a2,12(a4)
30005914:	00c42623          	sw	a2,12(s0)
30005918:	00e42423          	sw	a4,8(s0)
3000591c:	00862423          	sw	s0,8(a2)
30005920:	00872623          	sw	s0,12(a4)
30005924:	dddff06f          	j	30005700 <_malloc_r+0x1c4>
30005928:	01400713          	li	a4,20
3000592c:	12f77663          	bgeu	a4,a5,30005a58 <_malloc_r+0x51c>
30005930:	05400713          	li	a4,84
30005934:	2cf76c63          	bltu	a4,a5,30005c0c <_malloc_r+0x6d0>
30005938:	00c4d793          	srli	a5,s1,0xc
3000593c:	06f78593          	addi	a1,a5,111
30005940:	06e78513          	addi	a0,a5,110
30005944:	00359693          	slli	a3,a1,0x3
30005948:	d05ff06f          	j	3000564c <_malloc_r+0x110>
3000594c:	001e0e13          	addi	t3,t3,1
30005950:	003e7793          	andi	a5,t3,3
30005954:	00850513          	addi	a0,a0,8
30005958:	10078e63          	beqz	a5,30005a74 <_malloc_r+0x538>
3000595c:	00c52783          	lw	a5,12(a0)
30005960:	df5ff06f          	j	30005754 <_malloc_r+0x218>
30005964:	00842603          	lw	a2,8(s0)
30005968:	0014e593          	ori	a1,s1,1
3000596c:	00b42223          	sw	a1,4(s0)
30005970:	00f62623          	sw	a5,12(a2)
30005974:	00c7a423          	sw	a2,8(a5)
30005978:	009404b3          	add	s1,s0,s1
3000597c:	00992a23          	sw	s1,20(s2)
30005980:	00992823          	sw	s1,16(s2)
30005984:	0016e793          	ori	a5,a3,1
30005988:	0104a623          	sw	a6,12(s1)
3000598c:	0104a423          	sw	a6,8(s1)
30005990:	00f4a223          	sw	a5,4(s1)
30005994:	00e40733          	add	a4,s0,a4
30005998:	00098513          	mv	a0,s3
3000599c:	00d72023          	sw	a3,0(a4)
300059a0:	408000ef          	jal	ra,30005da8 <__malloc_unlock>
300059a4:	00840513          	addi	a0,s0,8
300059a8:	c39ff06f          	j	300055e0 <_malloc_r+0xa4>
300059ac:	00f407b3          	add	a5,s0,a5
300059b0:	0047a703          	lw	a4,4(a5)
300059b4:	00098513          	mv	a0,s3
300059b8:	00176713          	ori	a4,a4,1
300059bc:	00e7a223          	sw	a4,4(a5)
300059c0:	3e8000ef          	jal	ra,30005da8 <__malloc_unlock>
300059c4:	00840513          	addi	a0,s0,8
300059c8:	c19ff06f          	j	300055e0 <_malloc_r+0xa4>
300059cc:	0034d593          	srli	a1,s1,0x3
300059d0:	00848793          	addi	a5,s1,8
300059d4:	bc1ff06f          	j	30005594 <_malloc_r+0x58>
300059d8:	0014e693          	ori	a3,s1,1
300059dc:	00d42223          	sw	a3,4(s0)
300059e0:	009404b3          	add	s1,s0,s1
300059e4:	00992a23          	sw	s1,20(s2)
300059e8:	00992823          	sw	s1,16(s2)
300059ec:	00176693          	ori	a3,a4,1
300059f0:	0104a623          	sw	a6,12(s1)
300059f4:	0104a423          	sw	a6,8(s1)
300059f8:	00d4a223          	sw	a3,4(s1)
300059fc:	00f407b3          	add	a5,s0,a5
30005a00:	00098513          	mv	a0,s3
30005a04:	00e7a023          	sw	a4,0(a5)
30005a08:	3a0000ef          	jal	ra,30005da8 <__malloc_unlock>
30005a0c:	00840513          	addi	a0,s0,8
30005a10:	bd1ff06f          	j	300055e0 <_malloc_r+0xa4>
30005a14:	0067d713          	srli	a4,a5,0x6
30005a18:	03970613          	addi	a2,a4,57
30005a1c:	03870693          	addi	a3,a4,56
30005a20:	00361613          	slli	a2,a2,0x3
30005a24:	ec5ff06f          	j	300058e8 <_malloc_r+0x3ac>
30005a28:	09240a63          	beq	s0,s2,30005abc <_malloc_r+0x580>
30005a2c:	00892403          	lw	s0,8(s2)
30005a30:	00442783          	lw	a5,4(s0)
30005a34:	ffc7f793          	andi	a5,a5,-4
30005a38:	40978733          	sub	a4,a5,s1
30005a3c:	0097e663          	bltu	a5,s1,30005a48 <_malloc_r+0x50c>
30005a40:	00f00793          	li	a5,15
30005a44:	e4e7c0e3          	blt	a5,a4,30005884 <_malloc_r+0x348>
30005a48:	00098513          	mv	a0,s3
30005a4c:	35c000ef          	jal	ra,30005da8 <__malloc_unlock>
30005a50:	00000513          	li	a0,0
30005a54:	b8dff06f          	j	300055e0 <_malloc_r+0xa4>
30005a58:	05c78593          	addi	a1,a5,92
30005a5c:	05b78513          	addi	a0,a5,91
30005a60:	00359693          	slli	a3,a1,0x3
30005a64:	be9ff06f          	j	3000564c <_malloc_r+0x110>
30005a68:	00832783          	lw	a5,8(t1)
30005a6c:	fff58593          	addi	a1,a1,-1
30005a70:	24679863          	bne	a5,t1,30005cc0 <_malloc_r+0x784>
30005a74:	0035f793          	andi	a5,a1,3
30005a78:	ff830313          	addi	t1,t1,-8
30005a7c:	fe0796e3          	bnez	a5,30005a68 <_malloc_r+0x52c>
30005a80:	00492703          	lw	a4,4(s2)
30005a84:	fff64793          	not	a5,a2
30005a88:	00e7f7b3          	and	a5,a5,a4
30005a8c:	00f92223          	sw	a5,4(s2)
30005a90:	00161613          	slli	a2,a2,0x1
30005a94:	d2c7e6e3          	bltu	a5,a2,300057c0 <_malloc_r+0x284>
30005a98:	d20604e3          	beqz	a2,300057c0 <_malloc_r+0x284>
30005a9c:	00f67733          	and	a4,a2,a5
30005aa0:	00071a63          	bnez	a4,30005ab4 <_malloc_r+0x578>
30005aa4:	00161613          	slli	a2,a2,0x1
30005aa8:	00f67733          	and	a4,a2,a5
30005aac:	004e0e13          	addi	t3,t3,4
30005ab0:	fe070ae3          	beqz	a4,30005aa4 <_malloc_r+0x568>
30005ab4:	000e0593          	mv	a1,t3
30005ab8:	c89ff06f          	j	30005740 <_malloc_r+0x204>
30005abc:	30018c37          	lui	s8,0x30018
30005ac0:	14cc0c13          	addi	s8,s8,332 # 3001814c <__malloc_current_mallinfo>
30005ac4:	000c2703          	lw	a4,0(s8)
30005ac8:	00ea8733          	add	a4,s5,a4
30005acc:	00ec2023          	sw	a4,0(s8)
30005ad0:	b20ca683          	lw	a3,-1248(s9)
30005ad4:	fff00793          	li	a5,-1
30005ad8:	14f68863          	beq	a3,a5,30005c28 <_malloc_r+0x6ec>
30005adc:	414b87b3          	sub	a5,s7,s4
30005ae0:	00e787b3          	add	a5,a5,a4
30005ae4:	00fc2023          	sw	a5,0(s8)
30005ae8:	007bfc93          	andi	s9,s7,7
30005aec:	0c0c8c63          	beqz	s9,30005bc4 <_malloc_r+0x688>
30005af0:	00001737          	lui	a4,0x1
30005af4:	419b8bb3          	sub	s7,s7,s9
30005af8:	00870593          	addi	a1,a4,8 # 1008 <__stack_size+0x8>
30005afc:	008b8b93          	addi	s7,s7,8
30005b00:	419585b3          	sub	a1,a1,s9
30005b04:	015b8ab3          	add	s5,s7,s5
30005b08:	415585b3          	sub	a1,a1,s5
30005b0c:	fff70713          	addi	a4,a4,-1
30005b10:	00e5fa33          	and	s4,a1,a4
30005b14:	000a0593          	mv	a1,s4
30005b18:	00098513          	mv	a0,s3
30005b1c:	290000ef          	jal	ra,30005dac <_sbrk_r>
30005b20:	fff00793          	li	a5,-1
30005b24:	14f50863          	beq	a0,a5,30005c74 <_malloc_r+0x738>
30005b28:	41750533          	sub	a0,a0,s7
30005b2c:	01450ab3          	add	s5,a0,s4
30005b30:	000c2703          	lw	a4,0(s8)
30005b34:	01792423          	sw	s7,8(s2)
30005b38:	001ae793          	ori	a5,s5,1
30005b3c:	00ea05b3          	add	a1,s4,a4
30005b40:	00bc2023          	sw	a1,0(s8)
30005b44:	00fba223          	sw	a5,4(s7)
30005b48:	d1240ae3          	beq	s0,s2,3000585c <_malloc_r+0x320>
30005b4c:	00f00693          	li	a3,15
30005b50:	0f66f063          	bgeu	a3,s6,30005c30 <_malloc_r+0x6f4>
30005b54:	00442703          	lw	a4,4(s0)
30005b58:	ff4b0793          	addi	a5,s6,-12
30005b5c:	ff87f793          	andi	a5,a5,-8
30005b60:	00177713          	andi	a4,a4,1
30005b64:	00f76733          	or	a4,a4,a5
30005b68:	00e42223          	sw	a4,4(s0)
30005b6c:	00500613          	li	a2,5
30005b70:	00f40733          	add	a4,s0,a5
30005b74:	00c72223          	sw	a2,4(a4)
30005b78:	00c72423          	sw	a2,8(a4)
30005b7c:	00f6e663          	bltu	a3,a5,30005b88 <_malloc_r+0x64c>
30005b80:	004ba783          	lw	a5,4(s7)
30005b84:	cd9ff06f          	j	3000585c <_malloc_r+0x320>
30005b88:	00840593          	addi	a1,s0,8
30005b8c:	00098513          	mv	a0,s3
30005b90:	ae8ff0ef          	jal	ra,30004e78 <_free_r>
30005b94:	00892b83          	lw	s7,8(s2)
30005b98:	000c2583          	lw	a1,0(s8)
30005b9c:	004ba783          	lw	a5,4(s7)
30005ba0:	cbdff06f          	j	3000585c <_malloc_r+0x320>
30005ba4:	010a8a93          	addi	s5,s5,16
30005ba8:	c65ff06f          	j	3000580c <_malloc_r+0x2d0>
30005bac:	4026d693          	srai	a3,a3,0x2
30005bb0:	00100793          	li	a5,1
30005bb4:	00d797b3          	sll	a5,a5,a3
30005bb8:	00f56533          	or	a0,a0,a5
30005bbc:	00a92223          	sw	a0,4(s2)
30005bc0:	d55ff06f          	j	30005914 <_malloc_r+0x3d8>
30005bc4:	015b85b3          	add	a1,s7,s5
30005bc8:	40b005b3          	neg	a1,a1
30005bcc:	01459593          	slli	a1,a1,0x14
30005bd0:	0145da13          	srli	s4,a1,0x14
30005bd4:	000a0593          	mv	a1,s4
30005bd8:	00098513          	mv	a0,s3
30005bdc:	1d0000ef          	jal	ra,30005dac <_sbrk_r>
30005be0:	fff00793          	li	a5,-1
30005be4:	f4f512e3          	bne	a0,a5,30005b28 <_malloc_r+0x5ec>
30005be8:	00000a13          	li	s4,0
30005bec:	f45ff06f          	j	30005b30 <_malloc_r+0x5f4>
30005bf0:	05400693          	li	a3,84
30005bf4:	04e6e463          	bltu	a3,a4,30005c3c <_malloc_r+0x700>
30005bf8:	00c7d713          	srli	a4,a5,0xc
30005bfc:	06f70613          	addi	a2,a4,111
30005c00:	06e70693          	addi	a3,a4,110
30005c04:	00361613          	slli	a2,a2,0x3
30005c08:	ce1ff06f          	j	300058e8 <_malloc_r+0x3ac>
30005c0c:	15400713          	li	a4,340
30005c10:	04f76463          	bltu	a4,a5,30005c58 <_malloc_r+0x71c>
30005c14:	00f4d793          	srli	a5,s1,0xf
30005c18:	07878593          	addi	a1,a5,120
30005c1c:	07778513          	addi	a0,a5,119
30005c20:	00359693          	slli	a3,a1,0x3
30005c24:	a29ff06f          	j	3000564c <_malloc_r+0x110>
30005c28:	b37ca023          	sw	s7,-1248(s9)
30005c2c:	ebdff06f          	j	30005ae8 <_malloc_r+0x5ac>
30005c30:	00100793          	li	a5,1
30005c34:	00fba223          	sw	a5,4(s7)
30005c38:	e11ff06f          	j	30005a48 <_malloc_r+0x50c>
30005c3c:	15400693          	li	a3,340
30005c40:	04e6e463          	bltu	a3,a4,30005c88 <_malloc_r+0x74c>
30005c44:	00f7d713          	srli	a4,a5,0xf
30005c48:	07870613          	addi	a2,a4,120
30005c4c:	07770693          	addi	a3,a4,119
30005c50:	00361613          	slli	a2,a2,0x3
30005c54:	c95ff06f          	j	300058e8 <_malloc_r+0x3ac>
30005c58:	55400713          	li	a4,1364
30005c5c:	04f76463          	bltu	a4,a5,30005ca4 <_malloc_r+0x768>
30005c60:	0124d793          	srli	a5,s1,0x12
30005c64:	07d78593          	addi	a1,a5,125
30005c68:	07c78513          	addi	a0,a5,124
30005c6c:	00359693          	slli	a3,a1,0x3
30005c70:	9ddff06f          	j	3000564c <_malloc_r+0x110>
30005c74:	ff8c8c93          	addi	s9,s9,-8
30005c78:	019a8ab3          	add	s5,s5,s9
30005c7c:	417a8ab3          	sub	s5,s5,s7
30005c80:	00000a13          	li	s4,0
30005c84:	eadff06f          	j	30005b30 <_malloc_r+0x5f4>
30005c88:	55400693          	li	a3,1364
30005c8c:	02e6e463          	bltu	a3,a4,30005cb4 <_malloc_r+0x778>
30005c90:	0127d713          	srli	a4,a5,0x12
30005c94:	07d70613          	addi	a2,a4,125
30005c98:	07c70693          	addi	a3,a4,124
30005c9c:	00361613          	slli	a2,a2,0x3
30005ca0:	c49ff06f          	j	300058e8 <_malloc_r+0x3ac>
30005ca4:	3f800693          	li	a3,1016
30005ca8:	07f00593          	li	a1,127
30005cac:	07e00513          	li	a0,126
30005cb0:	99dff06f          	j	3000564c <_malloc_r+0x110>
30005cb4:	3f800613          	li	a2,1016
30005cb8:	07e00693          	li	a3,126
30005cbc:	c2dff06f          	j	300058e8 <_malloc_r+0x3ac>
30005cc0:	00492783          	lw	a5,4(s2)
30005cc4:	dcdff06f          	j	30005a90 <_malloc_r+0x554>

30005cc8 <memset>:
30005cc8:	00f00313          	li	t1,15
30005ccc:	00050713          	mv	a4,a0
30005cd0:	02c37e63          	bgeu	t1,a2,30005d0c <memset+0x44>
30005cd4:	00f77793          	andi	a5,a4,15
30005cd8:	0a079063          	bnez	a5,30005d78 <memset+0xb0>
30005cdc:	08059263          	bnez	a1,30005d60 <memset+0x98>
30005ce0:	ff067693          	andi	a3,a2,-16
30005ce4:	00f67613          	andi	a2,a2,15
30005ce8:	00e686b3          	add	a3,a3,a4
30005cec:	00b72023          	sw	a1,0(a4)
30005cf0:	00b72223          	sw	a1,4(a4)
30005cf4:	00b72423          	sw	a1,8(a4)
30005cf8:	00b72623          	sw	a1,12(a4)
30005cfc:	01070713          	addi	a4,a4,16
30005d00:	fed766e3          	bltu	a4,a3,30005cec <memset+0x24>
30005d04:	00061463          	bnez	a2,30005d0c <memset+0x44>
30005d08:	00008067          	ret
30005d0c:	40c306b3          	sub	a3,t1,a2
30005d10:	00269693          	slli	a3,a3,0x2
30005d14:	00000297          	auipc	t0,0x0
30005d18:	005686b3          	add	a3,a3,t0
30005d1c:	00c68067          	jr	12(a3)
30005d20:	00b70723          	sb	a1,14(a4)
30005d24:	00b706a3          	sb	a1,13(a4)
30005d28:	00b70623          	sb	a1,12(a4)
30005d2c:	00b705a3          	sb	a1,11(a4)
30005d30:	00b70523          	sb	a1,10(a4)
30005d34:	00b704a3          	sb	a1,9(a4)
30005d38:	00b70423          	sb	a1,8(a4)
30005d3c:	00b703a3          	sb	a1,7(a4)
30005d40:	00b70323          	sb	a1,6(a4)
30005d44:	00b702a3          	sb	a1,5(a4)
30005d48:	00b70223          	sb	a1,4(a4)
30005d4c:	00b701a3          	sb	a1,3(a4)
30005d50:	00b70123          	sb	a1,2(a4)
30005d54:	00b700a3          	sb	a1,1(a4)
30005d58:	00b70023          	sb	a1,0(a4)
30005d5c:	00008067          	ret
30005d60:	0ff5f593          	zext.b	a1,a1
30005d64:	00859693          	slli	a3,a1,0x8
30005d68:	00d5e5b3          	or	a1,a1,a3
30005d6c:	01059693          	slli	a3,a1,0x10
30005d70:	00d5e5b3          	or	a1,a1,a3
30005d74:	f6dff06f          	j	30005ce0 <memset+0x18>
30005d78:	00279693          	slli	a3,a5,0x2
30005d7c:	00000297          	auipc	t0,0x0
30005d80:	005686b3          	add	a3,a3,t0
30005d84:	00008293          	mv	t0,ra
30005d88:	fa0680e7          	jalr	-96(a3)
30005d8c:	00028093          	mv	ra,t0
30005d90:	ff078793          	addi	a5,a5,-16
30005d94:	40f70733          	sub	a4,a4,a5
30005d98:	00f60633          	add	a2,a2,a5
30005d9c:	f6c378e3          	bgeu	t1,a2,30005d0c <memset+0x44>
30005da0:	f3dff06f          	j	30005cdc <memset+0x14>

30005da4 <__malloc_lock>:
30005da4:	00008067          	ret

30005da8 <__malloc_unlock>:
30005da8:	00008067          	ret

30005dac <_sbrk_r>:
30005dac:	ff010113          	addi	sp,sp,-16
30005db0:	00812423          	sw	s0,8(sp)
30005db4:	00912223          	sw	s1,4(sp)
30005db8:	00050413          	mv	s0,a0
30005dbc:	00058513          	mv	a0,a1
30005dc0:	00112623          	sw	ra,12(sp)
30005dc4:	8201a623          	sw	zero,-2004(gp) # 30007b44 <errno>
30005dc8:	071000ef          	jal	ra,30006638 <_sbrk>
30005dcc:	fff00793          	li	a5,-1
30005dd0:	00f50c63          	beq	a0,a5,30005de8 <_sbrk_r+0x3c>
30005dd4:	00c12083          	lw	ra,12(sp)
30005dd8:	00812403          	lw	s0,8(sp)
30005ddc:	00412483          	lw	s1,4(sp)
30005de0:	01010113          	addi	sp,sp,16
30005de4:	00008067          	ret
30005de8:	82c1a783          	lw	a5,-2004(gp) # 30007b44 <errno>
30005dec:	fe0784e3          	beqz	a5,30005dd4 <_sbrk_r+0x28>
30005df0:	00c12083          	lw	ra,12(sp)
30005df4:	00f42023          	sw	a5,0(s0)
30005df8:	00812403          	lw	s0,8(sp)
30005dfc:	00412483          	lw	s1,4(sp)
30005e00:	01010113          	addi	sp,sp,16
30005e04:	00008067          	ret

30005e08 <__sread>:
30005e08:	ff010113          	addi	sp,sp,-16
30005e0c:	00812423          	sw	s0,8(sp)
30005e10:	00058413          	mv	s0,a1
30005e14:	00e59583          	lh	a1,14(a1)
30005e18:	00112623          	sw	ra,12(sp)
30005e1c:	464000ef          	jal	ra,30006280 <_read_r>
30005e20:	02054063          	bltz	a0,30005e40 <__sread+0x38>
30005e24:	05042783          	lw	a5,80(s0)
30005e28:	00c12083          	lw	ra,12(sp)
30005e2c:	00a787b3          	add	a5,a5,a0
30005e30:	04f42823          	sw	a5,80(s0)
30005e34:	00812403          	lw	s0,8(sp)
30005e38:	01010113          	addi	sp,sp,16
30005e3c:	00008067          	ret
30005e40:	00c45783          	lhu	a5,12(s0)
30005e44:	fffff737          	lui	a4,0xfffff
30005e48:	fff70713          	addi	a4,a4,-1 # ffffefff <_sp+0xcfefefff>
30005e4c:	00e7f7b3          	and	a5,a5,a4
30005e50:	00c12083          	lw	ra,12(sp)
30005e54:	00f41623          	sh	a5,12(s0)
30005e58:	00812403          	lw	s0,8(sp)
30005e5c:	01010113          	addi	sp,sp,16
30005e60:	00008067          	ret

30005e64 <__seofread>:
30005e64:	00000513          	li	a0,0
30005e68:	00008067          	ret

30005e6c <__swrite>:
30005e6c:	00c59783          	lh	a5,12(a1)
30005e70:	fe010113          	addi	sp,sp,-32
30005e74:	00812c23          	sw	s0,24(sp)
30005e78:	00912a23          	sw	s1,20(sp)
30005e7c:	01212823          	sw	s2,16(sp)
30005e80:	01312623          	sw	s3,12(sp)
30005e84:	00112e23          	sw	ra,28(sp)
30005e88:	1007f713          	andi	a4,a5,256
30005e8c:	00058413          	mv	s0,a1
30005e90:	00050493          	mv	s1,a0
30005e94:	00060913          	mv	s2,a2
30005e98:	00068993          	mv	s3,a3
30005e9c:	04071063          	bnez	a4,30005edc <__swrite+0x70>
30005ea0:	fffff737          	lui	a4,0xfffff
30005ea4:	fff70713          	addi	a4,a4,-1 # ffffefff <_sp+0xcfefefff>
30005ea8:	00e7f7b3          	and	a5,a5,a4
30005eac:	00e41583          	lh	a1,14(s0)
30005eb0:	00f41623          	sh	a5,12(s0)
30005eb4:	01812403          	lw	s0,24(sp)
30005eb8:	01c12083          	lw	ra,28(sp)
30005ebc:	00098693          	mv	a3,s3
30005ec0:	00090613          	mv	a2,s2
30005ec4:	00c12983          	lw	s3,12(sp)
30005ec8:	01012903          	lw	s2,16(sp)
30005ecc:	00048513          	mv	a0,s1
30005ed0:	01412483          	lw	s1,20(sp)
30005ed4:	02010113          	addi	sp,sp,32
30005ed8:	09c0006f          	j	30005f74 <_write_r>
30005edc:	00e59583          	lh	a1,14(a1)
30005ee0:	00200693          	li	a3,2
30005ee4:	00000613          	li	a2,0
30005ee8:	330000ef          	jal	ra,30006218 <_lseek_r>
30005eec:	00c41783          	lh	a5,12(s0)
30005ef0:	fb1ff06f          	j	30005ea0 <__swrite+0x34>

30005ef4 <__sseek>:
30005ef4:	ff010113          	addi	sp,sp,-16
30005ef8:	00812423          	sw	s0,8(sp)
30005efc:	00058413          	mv	s0,a1
30005f00:	00e59583          	lh	a1,14(a1)
30005f04:	00112623          	sw	ra,12(sp)
30005f08:	310000ef          	jal	ra,30006218 <_lseek_r>
30005f0c:	fff00793          	li	a5,-1
30005f10:	02f50863          	beq	a0,a5,30005f40 <__sseek+0x4c>
30005f14:	00c45783          	lhu	a5,12(s0)
30005f18:	00001737          	lui	a4,0x1
30005f1c:	00c12083          	lw	ra,12(sp)
30005f20:	00e7e7b3          	or	a5,a5,a4
30005f24:	01079793          	slli	a5,a5,0x10
30005f28:	4107d793          	srai	a5,a5,0x10
30005f2c:	04a42823          	sw	a0,80(s0)
30005f30:	00f41623          	sh	a5,12(s0)
30005f34:	00812403          	lw	s0,8(sp)
30005f38:	01010113          	addi	sp,sp,16
30005f3c:	00008067          	ret
30005f40:	00c45783          	lhu	a5,12(s0)
30005f44:	fffff737          	lui	a4,0xfffff
30005f48:	fff70713          	addi	a4,a4,-1 # ffffefff <_sp+0xcfefefff>
30005f4c:	00e7f7b3          	and	a5,a5,a4
30005f50:	01079793          	slli	a5,a5,0x10
30005f54:	4107d793          	srai	a5,a5,0x10
30005f58:	00c12083          	lw	ra,12(sp)
30005f5c:	00f41623          	sh	a5,12(s0)
30005f60:	00812403          	lw	s0,8(sp)
30005f64:	01010113          	addi	sp,sp,16
30005f68:	00008067          	ret

30005f6c <__sclose>:
30005f6c:	00e59583          	lh	a1,14(a1)
30005f70:	06c0006f          	j	30005fdc <_close_r>

30005f74 <_write_r>:
30005f74:	ff010113          	addi	sp,sp,-16
30005f78:	00058713          	mv	a4,a1
30005f7c:	00812423          	sw	s0,8(sp)
30005f80:	00912223          	sw	s1,4(sp)
30005f84:	00060593          	mv	a1,a2
30005f88:	00050413          	mv	s0,a0
30005f8c:	00068613          	mv	a2,a3
30005f90:	00070513          	mv	a0,a4
30005f94:	00112623          	sw	ra,12(sp)
30005f98:	8201a623          	sw	zero,-2004(gp) # 30007b44 <errno>
30005f9c:	714000ef          	jal	ra,300066b0 <_write>
30005fa0:	fff00793          	li	a5,-1
30005fa4:	00f50c63          	beq	a0,a5,30005fbc <_write_r+0x48>
30005fa8:	00c12083          	lw	ra,12(sp)
30005fac:	00812403          	lw	s0,8(sp)
30005fb0:	00412483          	lw	s1,4(sp)
30005fb4:	01010113          	addi	sp,sp,16
30005fb8:	00008067          	ret
30005fbc:	82c1a783          	lw	a5,-2004(gp) # 30007b44 <errno>
30005fc0:	fe0784e3          	beqz	a5,30005fa8 <_write_r+0x34>
30005fc4:	00c12083          	lw	ra,12(sp)
30005fc8:	00f42023          	sw	a5,0(s0)
30005fcc:	00812403          	lw	s0,8(sp)
30005fd0:	00412483          	lw	s1,4(sp)
30005fd4:	01010113          	addi	sp,sp,16
30005fd8:	00008067          	ret

30005fdc <_close_r>:
30005fdc:	ff010113          	addi	sp,sp,-16
30005fe0:	00812423          	sw	s0,8(sp)
30005fe4:	00912223          	sw	s1,4(sp)
30005fe8:	00050413          	mv	s0,a0
30005fec:	00058513          	mv	a0,a1
30005ff0:	00112623          	sw	ra,12(sp)
30005ff4:	8201a623          	sw	zero,-2004(gp) # 30007b44 <errno>
30005ff8:	4a4000ef          	jal	ra,3000649c <_close>
30005ffc:	fff00793          	li	a5,-1
30006000:	00f50c63          	beq	a0,a5,30006018 <_close_r+0x3c>
30006004:	00c12083          	lw	ra,12(sp)
30006008:	00812403          	lw	s0,8(sp)
3000600c:	00412483          	lw	s1,4(sp)
30006010:	01010113          	addi	sp,sp,16
30006014:	00008067          	ret
30006018:	82c1a783          	lw	a5,-2004(gp) # 30007b44 <errno>
3000601c:	fe0784e3          	beqz	a5,30006004 <_close_r+0x28>
30006020:	00c12083          	lw	ra,12(sp)
30006024:	00f42023          	sw	a5,0(s0)
30006028:	00812403          	lw	s0,8(sp)
3000602c:	00412483          	lw	s1,4(sp)
30006030:	01010113          	addi	sp,sp,16
30006034:	00008067          	ret

30006038 <_fclose_r>:
30006038:	ff010113          	addi	sp,sp,-16
3000603c:	00112623          	sw	ra,12(sp)
30006040:	00812423          	sw	s0,8(sp)
30006044:	00912223          	sw	s1,4(sp)
30006048:	01212023          	sw	s2,0(sp)
3000604c:	02058063          	beqz	a1,3000606c <_fclose_r+0x34>
30006050:	00058413          	mv	s0,a1
30006054:	00050493          	mv	s1,a0
30006058:	00050663          	beqz	a0,30006064 <_fclose_r+0x2c>
3000605c:	03852783          	lw	a5,56(a0)
30006060:	0a078c63          	beqz	a5,30006118 <_fclose_r+0xe0>
30006064:	00c41783          	lh	a5,12(s0)
30006068:	02079263          	bnez	a5,3000608c <_fclose_r+0x54>
3000606c:	00c12083          	lw	ra,12(sp)
30006070:	00812403          	lw	s0,8(sp)
30006074:	00000913          	li	s2,0
30006078:	00412483          	lw	s1,4(sp)
3000607c:	00090513          	mv	a0,s2
30006080:	00012903          	lw	s2,0(sp)
30006084:	01010113          	addi	sp,sp,16
30006088:	00008067          	ret
3000608c:	00040593          	mv	a1,s0
30006090:	00048513          	mv	a0,s1
30006094:	de8fe0ef          	jal	ra,3000467c <__sflush_r>
30006098:	02c42783          	lw	a5,44(s0)
3000609c:	00050913          	mv	s2,a0
300060a0:	00078a63          	beqz	a5,300060b4 <_fclose_r+0x7c>
300060a4:	01c42583          	lw	a1,28(s0)
300060a8:	00048513          	mv	a0,s1
300060ac:	000780e7          	jalr	a5
300060b0:	06054c63          	bltz	a0,30006128 <_fclose_r+0xf0>
300060b4:	00c45783          	lhu	a5,12(s0)
300060b8:	0807f793          	andi	a5,a5,128
300060bc:	06079e63          	bnez	a5,30006138 <_fclose_r+0x100>
300060c0:	03042583          	lw	a1,48(s0)
300060c4:	00058c63          	beqz	a1,300060dc <_fclose_r+0xa4>
300060c8:	04040793          	addi	a5,s0,64
300060cc:	00f58663          	beq	a1,a5,300060d8 <_fclose_r+0xa0>
300060d0:	00048513          	mv	a0,s1
300060d4:	da5fe0ef          	jal	ra,30004e78 <_free_r>
300060d8:	02042823          	sw	zero,48(s0)
300060dc:	04442583          	lw	a1,68(s0)
300060e0:	00058863          	beqz	a1,300060f0 <_fclose_r+0xb8>
300060e4:	00048513          	mv	a0,s1
300060e8:	d91fe0ef          	jal	ra,30004e78 <_free_r>
300060ec:	04042223          	sw	zero,68(s0)
300060f0:	c11fe0ef          	jal	ra,30004d00 <__sfp_lock_acquire>
300060f4:	00041623          	sh	zero,12(s0)
300060f8:	c0dfe0ef          	jal	ra,30004d04 <__sfp_lock_release>
300060fc:	00c12083          	lw	ra,12(sp)
30006100:	00812403          	lw	s0,8(sp)
30006104:	00412483          	lw	s1,4(sp)
30006108:	00090513          	mv	a0,s2
3000610c:	00012903          	lw	s2,0(sp)
30006110:	01010113          	addi	sp,sp,16
30006114:	00008067          	ret
30006118:	bd9fe0ef          	jal	ra,30004cf0 <__sinit>
3000611c:	00c41783          	lh	a5,12(s0)
30006120:	f40786e3          	beqz	a5,3000606c <_fclose_r+0x34>
30006124:	f69ff06f          	j	3000608c <_fclose_r+0x54>
30006128:	00c45783          	lhu	a5,12(s0)
3000612c:	fff00913          	li	s2,-1
30006130:	0807f793          	andi	a5,a5,128
30006134:	f80786e3          	beqz	a5,300060c0 <_fclose_r+0x88>
30006138:	01042583          	lw	a1,16(s0)
3000613c:	00048513          	mv	a0,s1
30006140:	d39fe0ef          	jal	ra,30004e78 <_free_r>
30006144:	f7dff06f          	j	300060c0 <_fclose_r+0x88>

30006148 <fclose>:
30006148:	300087b7          	lui	a5,0x30008
3000614c:	00050593          	mv	a1,a0
30006150:	b1c7a503          	lw	a0,-1252(a5) # 30007b1c <_impure_ptr>
30006154:	ee5ff06f          	j	30006038 <_fclose_r>

30006158 <_fstat_r>:
30006158:	ff010113          	addi	sp,sp,-16
3000615c:	00058713          	mv	a4,a1
30006160:	00812423          	sw	s0,8(sp)
30006164:	00912223          	sw	s1,4(sp)
30006168:	00050413          	mv	s0,a0
3000616c:	00060593          	mv	a1,a2
30006170:	00070513          	mv	a0,a4
30006174:	00112623          	sw	ra,12(sp)
30006178:	8201a623          	sw	zero,-2004(gp) # 30007b44 <errno>
3000617c:	394000ef          	jal	ra,30006510 <_fstat>
30006180:	fff00793          	li	a5,-1
30006184:	00f50c63          	beq	a0,a5,3000619c <_fstat_r+0x44>
30006188:	00c12083          	lw	ra,12(sp)
3000618c:	00812403          	lw	s0,8(sp)
30006190:	00412483          	lw	s1,4(sp)
30006194:	01010113          	addi	sp,sp,16
30006198:	00008067          	ret
3000619c:	82c1a783          	lw	a5,-2004(gp) # 30007b44 <errno>
300061a0:	fe0784e3          	beqz	a5,30006188 <_fstat_r+0x30>
300061a4:	00c12083          	lw	ra,12(sp)
300061a8:	00f42023          	sw	a5,0(s0)
300061ac:	00812403          	lw	s0,8(sp)
300061b0:	00412483          	lw	s1,4(sp)
300061b4:	01010113          	addi	sp,sp,16
300061b8:	00008067          	ret

300061bc <_isatty_r>:
300061bc:	ff010113          	addi	sp,sp,-16
300061c0:	00812423          	sw	s0,8(sp)
300061c4:	00912223          	sw	s1,4(sp)
300061c8:	00050413          	mv	s0,a0
300061cc:	00058513          	mv	a0,a1
300061d0:	00112623          	sw	ra,12(sp)
300061d4:	8201a623          	sw	zero,-2004(gp) # 30007b44 <errno>
300061d8:	398000ef          	jal	ra,30006570 <_isatty>
300061dc:	fff00793          	li	a5,-1
300061e0:	00f50c63          	beq	a0,a5,300061f8 <_isatty_r+0x3c>
300061e4:	00c12083          	lw	ra,12(sp)
300061e8:	00812403          	lw	s0,8(sp)
300061ec:	00412483          	lw	s1,4(sp)
300061f0:	01010113          	addi	sp,sp,16
300061f4:	00008067          	ret
300061f8:	82c1a783          	lw	a5,-2004(gp) # 30007b44 <errno>
300061fc:	fe0784e3          	beqz	a5,300061e4 <_isatty_r+0x28>
30006200:	00c12083          	lw	ra,12(sp)
30006204:	00f42023          	sw	a5,0(s0)
30006208:	00812403          	lw	s0,8(sp)
3000620c:	00412483          	lw	s1,4(sp)
30006210:	01010113          	addi	sp,sp,16
30006214:	00008067          	ret

30006218 <_lseek_r>:
30006218:	ff010113          	addi	sp,sp,-16
3000621c:	00058713          	mv	a4,a1
30006220:	00812423          	sw	s0,8(sp)
30006224:	00912223          	sw	s1,4(sp)
30006228:	00060593          	mv	a1,a2
3000622c:	00050413          	mv	s0,a0
30006230:	00068613          	mv	a2,a3
30006234:	00070513          	mv	a0,a4
30006238:	00112623          	sw	ra,12(sp)
3000623c:	8201a623          	sw	zero,-2004(gp) # 30007b44 <errno>
30006240:	370000ef          	jal	ra,300065b0 <_lseek>
30006244:	fff00793          	li	a5,-1
30006248:	00f50c63          	beq	a0,a5,30006260 <_lseek_r+0x48>
3000624c:	00c12083          	lw	ra,12(sp)
30006250:	00812403          	lw	s0,8(sp)
30006254:	00412483          	lw	s1,4(sp)
30006258:	01010113          	addi	sp,sp,16
3000625c:	00008067          	ret
30006260:	82c1a783          	lw	a5,-2004(gp) # 30007b44 <errno>
30006264:	fe0784e3          	beqz	a5,3000624c <_lseek_r+0x34>
30006268:	00c12083          	lw	ra,12(sp)
3000626c:	00f42023          	sw	a5,0(s0)
30006270:	00812403          	lw	s0,8(sp)
30006274:	00412483          	lw	s1,4(sp)
30006278:	01010113          	addi	sp,sp,16
3000627c:	00008067          	ret

30006280 <_read_r>:
30006280:	ff010113          	addi	sp,sp,-16
30006284:	00058713          	mv	a4,a1
30006288:	00812423          	sw	s0,8(sp)
3000628c:	00912223          	sw	s1,4(sp)
30006290:	00060593          	mv	a1,a2
30006294:	00050413          	mv	s0,a0
30006298:	00068613          	mv	a2,a3
3000629c:	00070513          	mv	a0,a4
300062a0:	00112623          	sw	ra,12(sp)
300062a4:	8201a623          	sw	zero,-2004(gp) # 30007b44 <errno>
300062a8:	34c000ef          	jal	ra,300065f4 <_read>
300062ac:	fff00793          	li	a5,-1
300062b0:	00f50c63          	beq	a0,a5,300062c8 <_read_r+0x48>
300062b4:	00c12083          	lw	ra,12(sp)
300062b8:	00812403          	lw	s0,8(sp)
300062bc:	00412483          	lw	s1,4(sp)
300062c0:	01010113          	addi	sp,sp,16
300062c4:	00008067          	ret
300062c8:	82c1a783          	lw	a5,-2004(gp) # 30007b44 <errno>
300062cc:	fe0784e3          	beqz	a5,300062b4 <_read_r+0x34>
300062d0:	00c12083          	lw	ra,12(sp)
300062d4:	00f42023          	sw	a5,0(s0)
300062d8:	00812403          	lw	s0,8(sp)
300062dc:	00412483          	lw	s1,4(sp)
300062e0:	01010113          	addi	sp,sp,16
300062e4:	00008067          	ret

300062e8 <cleanup_glue>:
300062e8:	fe010113          	addi	sp,sp,-32
300062ec:	01212823          	sw	s2,16(sp)
300062f0:	0005a903          	lw	s2,0(a1)
300062f4:	00812c23          	sw	s0,24(sp)
300062f8:	00912a23          	sw	s1,20(sp)
300062fc:	00112e23          	sw	ra,28(sp)
30006300:	01312623          	sw	s3,12(sp)
30006304:	01412423          	sw	s4,8(sp)
30006308:	00058413          	mv	s0,a1
3000630c:	00050493          	mv	s1,a0
30006310:	04090263          	beqz	s2,30006354 <cleanup_glue+0x6c>
30006314:	00092983          	lw	s3,0(s2)
30006318:	02098863          	beqz	s3,30006348 <cleanup_glue+0x60>
3000631c:	0009aa03          	lw	s4,0(s3)
30006320:	000a0e63          	beqz	s4,3000633c <cleanup_glue+0x54>
30006324:	000a2583          	lw	a1,0(s4)
30006328:	00058463          	beqz	a1,30006330 <cleanup_glue+0x48>
3000632c:	fbdff0ef          	jal	ra,300062e8 <cleanup_glue>
30006330:	000a0593          	mv	a1,s4
30006334:	00048513          	mv	a0,s1
30006338:	b41fe0ef          	jal	ra,30004e78 <_free_r>
3000633c:	00098593          	mv	a1,s3
30006340:	00048513          	mv	a0,s1
30006344:	b35fe0ef          	jal	ra,30004e78 <_free_r>
30006348:	00090593          	mv	a1,s2
3000634c:	00048513          	mv	a0,s1
30006350:	b29fe0ef          	jal	ra,30004e78 <_free_r>
30006354:	00040593          	mv	a1,s0
30006358:	01812403          	lw	s0,24(sp)
3000635c:	01c12083          	lw	ra,28(sp)
30006360:	01012903          	lw	s2,16(sp)
30006364:	00c12983          	lw	s3,12(sp)
30006368:	00812a03          	lw	s4,8(sp)
3000636c:	00048513          	mv	a0,s1
30006370:	01412483          	lw	s1,20(sp)
30006374:	02010113          	addi	sp,sp,32
30006378:	b01fe06f          	j	30004e78 <_free_r>

3000637c <_reclaim_reent>:
3000637c:	300087b7          	lui	a5,0x30008
30006380:	b1c7a783          	lw	a5,-1252(a5) # 30007b1c <_impure_ptr>
30006384:	10a78a63          	beq	a5,a0,30006498 <_reclaim_reent+0x11c>
30006388:	04c52583          	lw	a1,76(a0)
3000638c:	fe010113          	addi	sp,sp,-32
30006390:	00912a23          	sw	s1,20(sp)
30006394:	00112e23          	sw	ra,28(sp)
30006398:	00812c23          	sw	s0,24(sp)
3000639c:	01212823          	sw	s2,16(sp)
300063a0:	01312623          	sw	s3,12(sp)
300063a4:	00050493          	mv	s1,a0
300063a8:	04058063          	beqz	a1,300063e8 <_reclaim_reent+0x6c>
300063ac:	00000913          	li	s2,0
300063b0:	08000993          	li	s3,128
300063b4:	012587b3          	add	a5,a1,s2
300063b8:	0007a403          	lw	s0,0(a5)
300063bc:	00040e63          	beqz	s0,300063d8 <_reclaim_reent+0x5c>
300063c0:	00040593          	mv	a1,s0
300063c4:	00042403          	lw	s0,0(s0)
300063c8:	00048513          	mv	a0,s1
300063cc:	aadfe0ef          	jal	ra,30004e78 <_free_r>
300063d0:	fe0418e3          	bnez	s0,300063c0 <_reclaim_reent+0x44>
300063d4:	04c4a583          	lw	a1,76(s1)
300063d8:	00490913          	addi	s2,s2,4
300063dc:	fd391ce3          	bne	s2,s3,300063b4 <_reclaim_reent+0x38>
300063e0:	00048513          	mv	a0,s1
300063e4:	a95fe0ef          	jal	ra,30004e78 <_free_r>
300063e8:	0404a583          	lw	a1,64(s1)
300063ec:	00058663          	beqz	a1,300063f8 <_reclaim_reent+0x7c>
300063f0:	00048513          	mv	a0,s1
300063f4:	a85fe0ef          	jal	ra,30004e78 <_free_r>
300063f8:	1484a403          	lw	s0,328(s1)
300063fc:	02040063          	beqz	s0,3000641c <_reclaim_reent+0xa0>
30006400:	14c48913          	addi	s2,s1,332
30006404:	01240c63          	beq	s0,s2,3000641c <_reclaim_reent+0xa0>
30006408:	00040593          	mv	a1,s0
3000640c:	00042403          	lw	s0,0(s0)
30006410:	00048513          	mv	a0,s1
30006414:	a65fe0ef          	jal	ra,30004e78 <_free_r>
30006418:	fe8918e3          	bne	s2,s0,30006408 <_reclaim_reent+0x8c>
3000641c:	0544a583          	lw	a1,84(s1)
30006420:	00058663          	beqz	a1,3000642c <_reclaim_reent+0xb0>
30006424:	00048513          	mv	a0,s1
30006428:	a51fe0ef          	jal	ra,30004e78 <_free_r>
3000642c:	0384a783          	lw	a5,56(s1)
30006430:	04078663          	beqz	a5,3000647c <_reclaim_reent+0x100>
30006434:	03c4a783          	lw	a5,60(s1)
30006438:	00048513          	mv	a0,s1
3000643c:	000780e7          	jalr	a5
30006440:	2e04a403          	lw	s0,736(s1)
30006444:	02040c63          	beqz	s0,3000647c <_reclaim_reent+0x100>
30006448:	00042583          	lw	a1,0(s0)
3000644c:	00058663          	beqz	a1,30006458 <_reclaim_reent+0xdc>
30006450:	00048513          	mv	a0,s1
30006454:	e95ff0ef          	jal	ra,300062e8 <cleanup_glue>
30006458:	00040593          	mv	a1,s0
3000645c:	01812403          	lw	s0,24(sp)
30006460:	01c12083          	lw	ra,28(sp)
30006464:	01012903          	lw	s2,16(sp)
30006468:	00c12983          	lw	s3,12(sp)
3000646c:	00048513          	mv	a0,s1
30006470:	01412483          	lw	s1,20(sp)
30006474:	02010113          	addi	sp,sp,32
30006478:	a01fe06f          	j	30004e78 <_free_r>
3000647c:	01c12083          	lw	ra,28(sp)
30006480:	01812403          	lw	s0,24(sp)
30006484:	01412483          	lw	s1,20(sp)
30006488:	01012903          	lw	s2,16(sp)
3000648c:	00c12983          	lw	s3,12(sp)
30006490:	02010113          	addi	sp,sp,32
30006494:	00008067          	ret
30006498:	00008067          	ret

3000649c <_close>:
3000649c:	ff010113          	addi	sp,sp,-16
300064a0:	00112623          	sw	ra,12(sp)
300064a4:	00812423          	sw	s0,8(sp)
300064a8:	03900893          	li	a7,57
300064ac:	00000073          	ecall
300064b0:	00050413          	mv	s0,a0
300064b4:	00054c63          	bltz	a0,300064cc <_close+0x30>
300064b8:	00c12083          	lw	ra,12(sp)
300064bc:	00040513          	mv	a0,s0
300064c0:	00812403          	lw	s0,8(sp)
300064c4:	01010113          	addi	sp,sp,16
300064c8:	00008067          	ret
300064cc:	40800433          	neg	s0,s0
300064d0:	2cc000ef          	jal	ra,3000679c <__errno>
300064d4:	00852023          	sw	s0,0(a0)
300064d8:	fff00413          	li	s0,-1
300064dc:	fddff06f          	j	300064b8 <_close+0x1c>

300064e0 <_exit>:
300064e0:	05d00893          	li	a7,93
300064e4:	00000073          	ecall
300064e8:	00054463          	bltz	a0,300064f0 <_exit+0x10>
300064ec:	0000006f          	j	300064ec <_exit+0xc>
300064f0:	ff010113          	addi	sp,sp,-16
300064f4:	00812423          	sw	s0,8(sp)
300064f8:	00050413          	mv	s0,a0
300064fc:	00112623          	sw	ra,12(sp)
30006500:	40800433          	neg	s0,s0
30006504:	298000ef          	jal	ra,3000679c <__errno>
30006508:	00852023          	sw	s0,0(a0)
3000650c:	0000006f          	j	3000650c <_exit+0x2c>

30006510 <_fstat>:
30006510:	f7010113          	addi	sp,sp,-144
30006514:	08912223          	sw	s1,132(sp)
30006518:	08112623          	sw	ra,140(sp)
3000651c:	00058493          	mv	s1,a1
30006520:	08812423          	sw	s0,136(sp)
30006524:	05000893          	li	a7,80
30006528:	00010593          	mv	a1,sp
3000652c:	00000073          	ecall
30006530:	00050413          	mv	s0,a0
30006534:	02054463          	bltz	a0,3000655c <_fstat+0x4c>
30006538:	00048513          	mv	a0,s1
3000653c:	00010593          	mv	a1,sp
30006540:	1b4000ef          	jal	ra,300066f4 <_conv_stat>
30006544:	08c12083          	lw	ra,140(sp)
30006548:	00040513          	mv	a0,s0
3000654c:	08812403          	lw	s0,136(sp)
30006550:	08412483          	lw	s1,132(sp)
30006554:	09010113          	addi	sp,sp,144
30006558:	00008067          	ret
3000655c:	40800433          	neg	s0,s0
30006560:	23c000ef          	jal	ra,3000679c <__errno>
30006564:	00852023          	sw	s0,0(a0)
30006568:	fff00413          	li	s0,-1
3000656c:	fcdff06f          	j	30006538 <_fstat+0x28>

30006570 <_isatty>:
30006570:	f9010113          	addi	sp,sp,-112
30006574:	00810593          	addi	a1,sp,8
30006578:	06112623          	sw	ra,108(sp)
3000657c:	f95ff0ef          	jal	ra,30006510 <_fstat>
30006580:	fff00793          	li	a5,-1
30006584:	00f50e63          	beq	a0,a5,300065a0 <_isatty+0x30>
30006588:	00c12503          	lw	a0,12(sp)
3000658c:	06c12083          	lw	ra,108(sp)
30006590:	00d55513          	srli	a0,a0,0xd
30006594:	00157513          	andi	a0,a0,1
30006598:	07010113          	addi	sp,sp,112
3000659c:	00008067          	ret
300065a0:	06c12083          	lw	ra,108(sp)
300065a4:	00000513          	li	a0,0
300065a8:	07010113          	addi	sp,sp,112
300065ac:	00008067          	ret

300065b0 <_lseek>:
300065b0:	ff010113          	addi	sp,sp,-16
300065b4:	00112623          	sw	ra,12(sp)
300065b8:	00812423          	sw	s0,8(sp)
300065bc:	03e00893          	li	a7,62
300065c0:	00000073          	ecall
300065c4:	00050413          	mv	s0,a0
300065c8:	00054c63          	bltz	a0,300065e0 <_lseek+0x30>
300065cc:	00c12083          	lw	ra,12(sp)
300065d0:	00040513          	mv	a0,s0
300065d4:	00812403          	lw	s0,8(sp)
300065d8:	01010113          	addi	sp,sp,16
300065dc:	00008067          	ret
300065e0:	40800433          	neg	s0,s0
300065e4:	1b8000ef          	jal	ra,3000679c <__errno>
300065e8:	00852023          	sw	s0,0(a0)
300065ec:	fff00413          	li	s0,-1
300065f0:	fddff06f          	j	300065cc <_lseek+0x1c>

300065f4 <_read>:
300065f4:	ff010113          	addi	sp,sp,-16
300065f8:	00112623          	sw	ra,12(sp)
300065fc:	00812423          	sw	s0,8(sp)
30006600:	03f00893          	li	a7,63
30006604:	00000073          	ecall
30006608:	00050413          	mv	s0,a0
3000660c:	00054c63          	bltz	a0,30006624 <_read+0x30>
30006610:	00c12083          	lw	ra,12(sp)
30006614:	00040513          	mv	a0,s0
30006618:	00812403          	lw	s0,8(sp)
3000661c:	01010113          	addi	sp,sp,16
30006620:	00008067          	ret
30006624:	40800433          	neg	s0,s0
30006628:	174000ef          	jal	ra,3000679c <__errno>
3000662c:	00852023          	sw	s0,0(a0)
30006630:	fff00413          	li	s0,-1
30006634:	fddff06f          	j	30006610 <_read+0x1c>

30006638 <_sbrk>:
30006638:	8301a703          	lw	a4,-2000(gp) # 30007b48 <heap_end.0>
3000663c:	ff010113          	addi	sp,sp,-16
30006640:	00112623          	sw	ra,12(sp)
30006644:	00050793          	mv	a5,a0
30006648:	02071063          	bnez	a4,30006668 <_sbrk+0x30>
3000664c:	0d600893          	li	a7,214
30006650:	00000513          	li	a0,0
30006654:	00000073          	ecall
30006658:	fff00613          	li	a2,-1
3000665c:	00050713          	mv	a4,a0
30006660:	02c50a63          	beq	a0,a2,30006694 <_sbrk+0x5c>
30006664:	82a1a823          	sw	a0,-2000(gp) # 30007b48 <heap_end.0>
30006668:	0d600893          	li	a7,214
3000666c:	00e78533          	add	a0,a5,a4
30006670:	00000073          	ecall
30006674:	8301a703          	lw	a4,-2000(gp) # 30007b48 <heap_end.0>
30006678:	00e787b3          	add	a5,a5,a4
3000667c:	00f51c63          	bne	a0,a5,30006694 <_sbrk+0x5c>
30006680:	00c12083          	lw	ra,12(sp)
30006684:	82a1a823          	sw	a0,-2000(gp) # 30007b48 <heap_end.0>
30006688:	00070513          	mv	a0,a4
3000668c:	01010113          	addi	sp,sp,16
30006690:	00008067          	ret
30006694:	108000ef          	jal	ra,3000679c <__errno>
30006698:	00c12083          	lw	ra,12(sp)
3000669c:	00c00793          	li	a5,12
300066a0:	00f52023          	sw	a5,0(a0)
300066a4:	fff00513          	li	a0,-1
300066a8:	01010113          	addi	sp,sp,16
300066ac:	00008067          	ret

300066b0 <_write>:
300066b0:	ff010113          	addi	sp,sp,-16
300066b4:	00112623          	sw	ra,12(sp)
300066b8:	00812423          	sw	s0,8(sp)
300066bc:	04000893          	li	a7,64
300066c0:	00000073          	ecall
300066c4:	00050413          	mv	s0,a0
300066c8:	00054c63          	bltz	a0,300066e0 <_write+0x30>
300066cc:	00c12083          	lw	ra,12(sp)
300066d0:	00040513          	mv	a0,s0
300066d4:	00812403          	lw	s0,8(sp)
300066d8:	01010113          	addi	sp,sp,16
300066dc:	00008067          	ret
300066e0:	40800433          	neg	s0,s0
300066e4:	0b8000ef          	jal	ra,3000679c <__errno>
300066e8:	00852023          	sw	s0,0(a0)
300066ec:	fff00413          	li	s0,-1
300066f0:	fddff06f          	j	300066cc <_write+0x1c>

300066f4 <_conv_stat>:
300066f4:	0185d703          	lhu	a4,24(a1)
300066f8:	0145d783          	lhu	a5,20(a1)
300066fc:	ff010113          	addi	sp,sp,-16
30006700:	01c5a283          	lw	t0,28(a1)
30006704:	0205af83          	lw	t6,32(a1)
30006708:	0305af03          	lw	t5,48(a1)
3000670c:	0405ae83          	lw	t4,64(a1)
30006710:	0385ae03          	lw	t3,56(a1)
30006714:	0485a303          	lw	t1,72(a1)
30006718:	04c5a383          	lw	t2,76(a1)
3000671c:	0585a803          	lw	a6,88(a1)
30006720:	05c5a883          	lw	a7,92(a1)
30006724:	00812623          	sw	s0,12(sp)
30006728:	00912423          	sw	s1,8(sp)
3000672c:	0105a403          	lw	s0,16(a1)
30006730:	0085a483          	lw	s1,8(a1)
30006734:	01212223          	sw	s2,4(sp)
30006738:	0005a903          	lw	s2,0(a1)
3000673c:	0685a603          	lw	a2,104(a1)
30006740:	01071713          	slli	a4,a4,0x10
30006744:	00e7e7b3          	or	a5,a5,a4
30006748:	06c5a683          	lw	a3,108(a1)
3000674c:	01251023          	sh	s2,0(a0)
30006750:	00951123          	sh	s1,2(a0)
30006754:	00852223          	sw	s0,4(a0)
30006758:	00f52423          	sw	a5,8(a0)
3000675c:	00551623          	sh	t0,12(a0)
30006760:	01f51723          	sh	t6,14(a0)
30006764:	01e52823          	sw	t5,16(a0)
30006768:	05d52623          	sw	t4,76(a0)
3000676c:	05c52423          	sw	t3,72(a0)
30006770:	00652c23          	sw	t1,24(a0)
30006774:	00752e23          	sw	t2,28(a0)
30006778:	03052423          	sw	a6,40(a0)
3000677c:	03152623          	sw	a7,44(a0)
30006780:	02c52c23          	sw	a2,56(a0)
30006784:	00c12403          	lw	s0,12(sp)
30006788:	02d52e23          	sw	a3,60(a0)
3000678c:	00812483          	lw	s1,8(sp)
30006790:	00412903          	lw	s2,4(sp)
30006794:	01010113          	addi	sp,sp,16
30006798:	00008067          	ret

3000679c <__errno>:
3000679c:	300087b7          	lui	a5,0x30008
300067a0:	b1c7a503          	lw	a0,-1252(a5) # 30007b1c <_impure_ptr>
300067a4:	00008067          	ret
