
/mnt/e/computer architecture/sysy/test/quick_sort:     file format elf32-littleriscv


Disassembly of section .text:

00011114 <QuickSort>:
   11114:	e9010113          	add	sp,sp,-368
   11118:	16112623          	sw	ra,364(sp)
   1111c:	00a12023          	sw	a0,0(sp)
   11120:	00b12223          	sw	a1,4(sp)
   11124:	00c12423          	sw	a2,8(sp)
   11128:	00412283          	lw	t0,4(sp)
   1112c:	00512623          	sw	t0,12(sp)
   11130:	00812283          	lw	t0,8(sp)
   11134:	00512823          	sw	t0,16(sp)
   11138:	00c12283          	lw	t0,12(sp)
   1113c:	01012303          	lw	t1,16(sp)
   11140:	0062a2b3          	slt	t0,t0,t1
   11144:	00512a23          	sw	t0,20(sp)
   11148:	01412283          	lw	t0,20(sp)
   1114c:	00029463          	bnez	t0,11154 <Label0>
   11150:	0680006f          	j	111b8 <end_0>

00011154 <Label0>:
   11154:	0040006f          	j	11158 <then_0>

00011158 <then_0>:
   11158:	00412283          	lw	t0,4(sp)
   1115c:	00512e23          	sw	t0,28(sp)
   11160:	01c12283          	lw	t0,28(sp)
   11164:	00512c23          	sw	t0,24(sp)
   11168:	00812283          	lw	t0,8(sp)
   1116c:	02512223          	sw	t0,36(sp)
   11170:	02412283          	lw	t0,36(sp)
   11174:	02512023          	sw	t0,32(sp)
   11178:	00412283          	lw	t0,4(sp)
   1117c:	02512623          	sw	t0,44(sp)
   11180:	00012283          	lw	t0,0(sp)
   11184:	02512823          	sw	t0,48(sp)
   11188:	03012283          	lw	t0,48(sp)
   1118c:	02c12303          	lw	t1,44(sp)
   11190:	00400393          	li	t2,4
   11194:	02730333          	mul	t1,t1,t2
   11198:	006282b3          	add	t0,t0,t1
   1119c:	02512a23          	sw	t0,52(sp)
   111a0:	03412283          	lw	t0,52(sp)
   111a4:	0002a283          	lw	t0,0(t0)
   111a8:	02512c23          	sw	t0,56(sp)
   111ac:	03812283          	lw	t0,56(sp)
   111b0:	02512423          	sw	t0,40(sp)
   111b4:	0140006f          	j	111c8 <while_entry_0>

000111b8 <end_0>:
   111b8:	00000513          	li	a0,0
   111bc:	16c12083          	lw	ra,364(sp)
   111c0:	17010113          	add	sp,sp,368
   111c4:	00008067          	ret

000111c8 <while_entry_0>:
   111c8:	01812283          	lw	t0,24(sp)
   111cc:	02512e23          	sw	t0,60(sp)
   111d0:	02012283          	lw	t0,32(sp)
   111d4:	04512023          	sw	t0,64(sp)
   111d8:	03c12283          	lw	t0,60(sp)
   111dc:	04012303          	lw	t1,64(sp)
   111e0:	0062a2b3          	slt	t0,t0,t1
   111e4:	04512223          	sw	t0,68(sp)
   111e8:	04412283          	lw	t0,68(sp)
   111ec:	00029463          	bnez	t0,111f4 <Label1>
   111f0:	00c0006f          	j	111fc <while_end_0>

000111f4 <Label1>:
   111f4:	0040006f          	j	111f8 <while_body_0>

000111f8 <while_body_0>:
   111f8:	0f40006f          	j	112ec <while_entry_1>

000111fc <while_end_0>:
   111fc:	02812283          	lw	t0,40(sp)
   11200:	04512423          	sw	t0,72(sp)
   11204:	01812283          	lw	t0,24(sp)
   11208:	04512623          	sw	t0,76(sp)
   1120c:	00012283          	lw	t0,0(sp)
   11210:	04512823          	sw	t0,80(sp)
   11214:	05012283          	lw	t0,80(sp)
   11218:	04c12303          	lw	t1,76(sp)
   1121c:	00400393          	li	t2,4
   11220:	02730333          	mul	t1,t1,t2
   11224:	006282b3          	add	t0,t0,t1
   11228:	04512a23          	sw	t0,84(sp)
   1122c:	04812283          	lw	t0,72(sp)
   11230:	05412303          	lw	t1,84(sp)
   11234:	00532023          	sw	t0,0(t1)
   11238:	01812283          	lw	t0,24(sp)
   1123c:	04512e23          	sw	t0,92(sp)
   11240:	05c12283          	lw	t0,92(sp)
   11244:	00100313          	li	t1,1
   11248:	406282b3          	sub	t0,t0,t1
   1124c:	06512023          	sw	t0,96(sp)
   11250:	06012283          	lw	t0,96(sp)
   11254:	04512c23          	sw	t0,88(sp)
   11258:	00012283          	lw	t0,0(sp)
   1125c:	06512223          	sw	t0,100(sp)
   11260:	00412283          	lw	t0,4(sp)
   11264:	06512423          	sw	t0,104(sp)
   11268:	05812283          	lw	t0,88(sp)
   1126c:	06512623          	sw	t0,108(sp)
   11270:	06412503          	lw	a0,100(sp)
   11274:	06812583          	lw	a1,104(sp)
   11278:	06c12603          	lw	a2,108(sp)
   1127c:	00000097          	auipc	ra,0x0
   11280:	e98080e7          	jalr	-360(ra) # 11114 <QuickSort>
   11284:	06a12823          	sw	a0,112(sp)
   11288:	07012283          	lw	t0,112(sp)
   1128c:	04512c23          	sw	t0,88(sp)
   11290:	01812283          	lw	t0,24(sp)
   11294:	06512a23          	sw	t0,116(sp)
   11298:	07412283          	lw	t0,116(sp)
   1129c:	00100313          	li	t1,1
   112a0:	006282b3          	add	t0,t0,t1
   112a4:	06512c23          	sw	t0,120(sp)
   112a8:	07812283          	lw	t0,120(sp)
   112ac:	04512c23          	sw	t0,88(sp)
   112b0:	00012283          	lw	t0,0(sp)
   112b4:	06512e23          	sw	t0,124(sp)
   112b8:	05812283          	lw	t0,88(sp)
   112bc:	08512023          	sw	t0,128(sp)
   112c0:	00812283          	lw	t0,8(sp)
   112c4:	08512223          	sw	t0,132(sp)
   112c8:	07c12503          	lw	a0,124(sp)
   112cc:	08012583          	lw	a1,128(sp)
   112d0:	08412603          	lw	a2,132(sp)
   112d4:	00000097          	auipc	ra,0x0
   112d8:	e40080e7          	jalr	-448(ra) # 11114 <QuickSort>
   112dc:	08a12423          	sw	a0,136(sp)
   112e0:	08812283          	lw	t0,136(sp)
   112e4:	04512c23          	sw	t0,88(sp)
   112e8:	ed1ff06f          	j	111b8 <end_0>

000112ec <while_entry_1>:
   112ec:	00000293          	li	t0,0
   112f0:	08512623          	sw	t0,140(sp)
   112f4:	01812283          	lw	t0,24(sp)
   112f8:	08512823          	sw	t0,144(sp)
   112fc:	02012283          	lw	t0,32(sp)
   11300:	08512a23          	sw	t0,148(sp)
   11304:	09012283          	lw	t0,144(sp)
   11308:	09412303          	lw	t1,148(sp)
   1130c:	0062a2b3          	slt	t0,t0,t1
   11310:	08512c23          	sw	t0,152(sp)
   11314:	09812283          	lw	t0,152(sp)
   11318:	00029463          	bnez	t0,11320 <Label2>
   1131c:	0840006f          	j	113a0 <end_sc_0>

00011320 <Label2>:
   11320:	0040006f          	j	11324 <then_sc_0>

00011324 <then_sc_0>:
   11324:	02012283          	lw	t0,32(sp)
   11328:	08512e23          	sw	t0,156(sp)
   1132c:	00012283          	lw	t0,0(sp)
   11330:	0a512023          	sw	t0,160(sp)
   11334:	0a012283          	lw	t0,160(sp)
   11338:	09c12303          	lw	t1,156(sp)
   1133c:	00400393          	li	t2,4
   11340:	02730333          	mul	t1,t1,t2
   11344:	006282b3          	add	t0,t0,t1
   11348:	0a512223          	sw	t0,164(sp)
   1134c:	0a412283          	lw	t0,164(sp)
   11350:	0002a283          	lw	t0,0(t0)
   11354:	0a512423          	sw	t0,168(sp)
   11358:	02812283          	lw	t0,40(sp)
   1135c:	0a512623          	sw	t0,172(sp)
   11360:	0ac12283          	lw	t0,172(sp)
   11364:	00100313          	li	t1,1
   11368:	406282b3          	sub	t0,t0,t1
   1136c:	0a512823          	sw	t0,176(sp)
   11370:	0a812283          	lw	t0,168(sp)
   11374:	0b012303          	lw	t1,176(sp)
   11378:	005322b3          	slt	t0,t1,t0
   1137c:	0a512a23          	sw	t0,180(sp)
   11380:	0b412283          	lw	t0,180(sp)
   11384:	00000313          	li	t1,0
   11388:	0062c2b3          	xor	t0,t0,t1
   1138c:	005032b3          	snez	t0,t0
   11390:	0a512c23          	sw	t0,184(sp)
   11394:	0b812283          	lw	t0,184(sp)
   11398:	08512623          	sw	t0,140(sp)
   1139c:	0040006f          	j	113a0 <end_sc_0>

000113a0 <end_sc_0>:
   113a0:	08c12283          	lw	t0,140(sp)
   113a4:	0a512e23          	sw	t0,188(sp)
   113a8:	0bc12283          	lw	t0,188(sp)
   113ac:	00029463          	bnez	t0,113b4 <Label3>
   113b0:	02c0006f          	j	113dc <while_end_1>

000113b4 <Label3>:
   113b4:	0040006f          	j	113b8 <while_body_1>

000113b8 <while_body_1>:
   113b8:	02012283          	lw	t0,32(sp)
   113bc:	0c512023          	sw	t0,192(sp)
   113c0:	0c012283          	lw	t0,192(sp)
   113c4:	00100313          	li	t1,1
   113c8:	406282b3          	sub	t0,t0,t1
   113cc:	0c512223          	sw	t0,196(sp)
   113d0:	0c412283          	lw	t0,196(sp)
   113d4:	02512023          	sw	t0,32(sp)
   113d8:	f15ff06f          	j	112ec <while_entry_1>

000113dc <while_end_1>:
   113dc:	01812283          	lw	t0,24(sp)
   113e0:	0c512423          	sw	t0,200(sp)
   113e4:	02012283          	lw	t0,32(sp)
   113e8:	0c512623          	sw	t0,204(sp)
   113ec:	0c812283          	lw	t0,200(sp)
   113f0:	0cc12303          	lw	t1,204(sp)
   113f4:	0062a2b3          	slt	t0,t0,t1
   113f8:	0c512823          	sw	t0,208(sp)
   113fc:	0d012283          	lw	t0,208(sp)
   11400:	00029463          	bnez	t0,11408 <Label4>
   11404:	0940006f          	j	11498 <end_1>

00011408 <Label4>:
   11408:	0040006f          	j	1140c <then_1>

0001140c <then_1>:
   1140c:	02012283          	lw	t0,32(sp)
   11410:	0c512a23          	sw	t0,212(sp)
   11414:	00012283          	lw	t0,0(sp)
   11418:	0c512c23          	sw	t0,216(sp)
   1141c:	0d812283          	lw	t0,216(sp)
   11420:	0d412303          	lw	t1,212(sp)
   11424:	00400393          	li	t2,4
   11428:	02730333          	mul	t1,t1,t2
   1142c:	006282b3          	add	t0,t0,t1
   11430:	0c512e23          	sw	t0,220(sp)
   11434:	0dc12283          	lw	t0,220(sp)
   11438:	0002a283          	lw	t0,0(t0)
   1143c:	0e512023          	sw	t0,224(sp)
   11440:	01812283          	lw	t0,24(sp)
   11444:	0e512223          	sw	t0,228(sp)
   11448:	00012283          	lw	t0,0(sp)
   1144c:	0e512423          	sw	t0,232(sp)
   11450:	0e812283          	lw	t0,232(sp)
   11454:	0e412303          	lw	t1,228(sp)
   11458:	00400393          	li	t2,4
   1145c:	02730333          	mul	t1,t1,t2
   11460:	006282b3          	add	t0,t0,t1
   11464:	0e512623          	sw	t0,236(sp)
   11468:	0e012283          	lw	t0,224(sp)
   1146c:	0ec12303          	lw	t1,236(sp)
   11470:	00532023          	sw	t0,0(t1)
   11474:	01812283          	lw	t0,24(sp)
   11478:	0e512823          	sw	t0,240(sp)
   1147c:	0f012283          	lw	t0,240(sp)
   11480:	00100313          	li	t1,1
   11484:	006282b3          	add	t0,t0,t1
   11488:	0e512a23          	sw	t0,244(sp)
   1148c:	0f412283          	lw	t0,244(sp)
   11490:	00512c23          	sw	t0,24(sp)
   11494:	0040006f          	j	11498 <end_1>

00011498 <end_1>:
   11498:	0040006f          	j	1149c <while_entry_2>

0001149c <while_entry_2>:
   1149c:	00000293          	li	t0,0
   114a0:	0e512c23          	sw	t0,248(sp)
   114a4:	01812283          	lw	t0,24(sp)
   114a8:	0e512e23          	sw	t0,252(sp)
   114ac:	02012283          	lw	t0,32(sp)
   114b0:	10512023          	sw	t0,256(sp)
   114b4:	0fc12283          	lw	t0,252(sp)
   114b8:	10012303          	lw	t1,256(sp)
   114bc:	0062a2b3          	slt	t0,t0,t1
   114c0:	10512223          	sw	t0,260(sp)
   114c4:	10412283          	lw	t0,260(sp)
   114c8:	00029463          	bnez	t0,114d0 <Label5>
   114cc:	0740006f          	j	11540 <end_sc_1>

000114d0 <Label5>:
   114d0:	0040006f          	j	114d4 <then_sc_1>

000114d4 <then_sc_1>:
   114d4:	01812283          	lw	t0,24(sp)
   114d8:	10512423          	sw	t0,264(sp)
   114dc:	00012283          	lw	t0,0(sp)
   114e0:	10512623          	sw	t0,268(sp)
   114e4:	10c12283          	lw	t0,268(sp)
   114e8:	10812303          	lw	t1,264(sp)
   114ec:	00400393          	li	t2,4
   114f0:	02730333          	mul	t1,t1,t2
   114f4:	006282b3          	add	t0,t0,t1
   114f8:	10512823          	sw	t0,272(sp)
   114fc:	11012283          	lw	t0,272(sp)
   11500:	0002a283          	lw	t0,0(t0)
   11504:	10512a23          	sw	t0,276(sp)
   11508:	02812283          	lw	t0,40(sp)
   1150c:	10512c23          	sw	t0,280(sp)
   11510:	11412283          	lw	t0,276(sp)
   11514:	11812303          	lw	t1,280(sp)
   11518:	0062a2b3          	slt	t0,t0,t1
   1151c:	10512e23          	sw	t0,284(sp)
   11520:	11c12283          	lw	t0,284(sp)
   11524:	00000313          	li	t1,0
   11528:	0062c2b3          	xor	t0,t0,t1
   1152c:	005032b3          	snez	t0,t0
   11530:	12512023          	sw	t0,288(sp)
   11534:	12012283          	lw	t0,288(sp)
   11538:	0e512c23          	sw	t0,248(sp)
   1153c:	0040006f          	j	11540 <end_sc_1>

00011540 <end_sc_1>:
   11540:	0f812283          	lw	t0,248(sp)
   11544:	12512223          	sw	t0,292(sp)
   11548:	12412283          	lw	t0,292(sp)
   1154c:	00029463          	bnez	t0,11554 <Label6>
   11550:	02c0006f          	j	1157c <while_end_2>

00011554 <Label6>:
   11554:	0040006f          	j	11558 <while_body_2>

00011558 <while_body_2>:
   11558:	01812283          	lw	t0,24(sp)
   1155c:	12512423          	sw	t0,296(sp)
   11560:	12812283          	lw	t0,296(sp)
   11564:	00100313          	li	t1,1
   11568:	006282b3          	add	t0,t0,t1
   1156c:	12512623          	sw	t0,300(sp)
   11570:	12c12283          	lw	t0,300(sp)
   11574:	00512c23          	sw	t0,24(sp)
   11578:	f25ff06f          	j	1149c <while_entry_2>

0001157c <while_end_2>:
   1157c:	01812283          	lw	t0,24(sp)
   11580:	12512823          	sw	t0,304(sp)
   11584:	02012283          	lw	t0,32(sp)
   11588:	12512a23          	sw	t0,308(sp)
   1158c:	13012283          	lw	t0,304(sp)
   11590:	13412303          	lw	t1,308(sp)
   11594:	0062a2b3          	slt	t0,t0,t1
   11598:	12512c23          	sw	t0,312(sp)
   1159c:	13812283          	lw	t0,312(sp)
   115a0:	00029463          	bnez	t0,115a8 <Label7>
   115a4:	0940006f          	j	11638 <end_2>

000115a8 <Label7>:
   115a8:	0040006f          	j	115ac <then_2>

000115ac <then_2>:
   115ac:	01812283          	lw	t0,24(sp)
   115b0:	12512e23          	sw	t0,316(sp)
   115b4:	00012283          	lw	t0,0(sp)
   115b8:	14512023          	sw	t0,320(sp)
   115bc:	14012283          	lw	t0,320(sp)
   115c0:	13c12303          	lw	t1,316(sp)
   115c4:	00400393          	li	t2,4
   115c8:	02730333          	mul	t1,t1,t2
   115cc:	006282b3          	add	t0,t0,t1
   115d0:	14512223          	sw	t0,324(sp)
   115d4:	14412283          	lw	t0,324(sp)
   115d8:	0002a283          	lw	t0,0(t0)
   115dc:	14512423          	sw	t0,328(sp)
   115e0:	02012283          	lw	t0,32(sp)
   115e4:	14512623          	sw	t0,332(sp)
   115e8:	00012283          	lw	t0,0(sp)
   115ec:	14512823          	sw	t0,336(sp)
   115f0:	15012283          	lw	t0,336(sp)
   115f4:	14c12303          	lw	t1,332(sp)
   115f8:	00400393          	li	t2,4
   115fc:	02730333          	mul	t1,t1,t2
   11600:	006282b3          	add	t0,t0,t1
   11604:	14512a23          	sw	t0,340(sp)
   11608:	14812283          	lw	t0,328(sp)
   1160c:	15412303          	lw	t1,340(sp)
   11610:	00532023          	sw	t0,0(t1)
   11614:	02012283          	lw	t0,32(sp)
   11618:	14512c23          	sw	t0,344(sp)
   1161c:	15812283          	lw	t0,344(sp)
   11620:	00100313          	li	t1,1
   11624:	406282b3          	sub	t0,t0,t1
   11628:	14512e23          	sw	t0,348(sp)
   1162c:	15c12283          	lw	t0,348(sp)
   11630:	02512023          	sw	t0,32(sp)
   11634:	0040006f          	j	11638 <end_2>

00011638 <end_2>:
   11638:	b91ff06f          	j	111c8 <while_entry_0>

0001163c <main>:
   1163c:	f6010113          	add	sp,sp,-160
   11640:	08112e23          	sw	ra,156(sp)
   11644:	00a00293          	li	t0,10

00011648 <.Lpcrel_hi0>:
   11648:	00003317          	auipc	t1,0x3
   1164c:	75030313          	add	t1,t1,1872 # 14d98 <n_0>
   11650:	00532023          	sw	t0,0(t1)
   11654:	00010293          	mv	t0,sp
   11658:	00000313          	li	t1,0
   1165c:	00400393          	li	t2,4
   11660:	02730333          	mul	t1,t1,t2
   11664:	006282b3          	add	t0,t0,t1
   11668:	02512423          	sw	t0,40(sp)
   1166c:	00400293          	li	t0,4
   11670:	02812303          	lw	t1,40(sp)
   11674:	00532023          	sw	t0,0(t1)
   11678:	00010293          	mv	t0,sp
   1167c:	00100313          	li	t1,1
   11680:	00400393          	li	t2,4
   11684:	02730333          	mul	t1,t1,t2
   11688:	006282b3          	add	t0,t0,t1
   1168c:	02512623          	sw	t0,44(sp)
   11690:	00300293          	li	t0,3
   11694:	02c12303          	lw	t1,44(sp)
   11698:	00532023          	sw	t0,0(t1)
   1169c:	00010293          	mv	t0,sp
   116a0:	00200313          	li	t1,2
   116a4:	00400393          	li	t2,4
   116a8:	02730333          	mul	t1,t1,t2
   116ac:	006282b3          	add	t0,t0,t1
   116b0:	02512823          	sw	t0,48(sp)
   116b4:	00900293          	li	t0,9
   116b8:	03012303          	lw	t1,48(sp)
   116bc:	00532023          	sw	t0,0(t1)
   116c0:	00010293          	mv	t0,sp
   116c4:	00300313          	li	t1,3
   116c8:	00400393          	li	t2,4
   116cc:	02730333          	mul	t1,t1,t2
   116d0:	006282b3          	add	t0,t0,t1
   116d4:	02512a23          	sw	t0,52(sp)
   116d8:	00200293          	li	t0,2
   116dc:	03412303          	lw	t1,52(sp)
   116e0:	00532023          	sw	t0,0(t1)
   116e4:	00010293          	mv	t0,sp
   116e8:	00400313          	li	t1,4
   116ec:	00400393          	li	t2,4
   116f0:	02730333          	mul	t1,t1,t2
   116f4:	006282b3          	add	t0,t0,t1
   116f8:	02512c23          	sw	t0,56(sp)
   116fc:	00000293          	li	t0,0
   11700:	03812303          	lw	t1,56(sp)
   11704:	00532023          	sw	t0,0(t1)
   11708:	00010293          	mv	t0,sp
   1170c:	00500313          	li	t1,5
   11710:	00400393          	li	t2,4
   11714:	02730333          	mul	t1,t1,t2
   11718:	006282b3          	add	t0,t0,t1
   1171c:	02512e23          	sw	t0,60(sp)
   11720:	00100293          	li	t0,1
   11724:	03c12303          	lw	t1,60(sp)
   11728:	00532023          	sw	t0,0(t1)
   1172c:	00010293          	mv	t0,sp
   11730:	00600313          	li	t1,6
   11734:	00400393          	li	t2,4
   11738:	02730333          	mul	t1,t1,t2
   1173c:	006282b3          	add	t0,t0,t1
   11740:	04512023          	sw	t0,64(sp)
   11744:	00600293          	li	t0,6
   11748:	04012303          	lw	t1,64(sp)
   1174c:	00532023          	sw	t0,0(t1)
   11750:	00010293          	mv	t0,sp
   11754:	00700313          	li	t1,7
   11758:	00400393          	li	t2,4
   1175c:	02730333          	mul	t1,t1,t2
   11760:	006282b3          	add	t0,t0,t1
   11764:	04512223          	sw	t0,68(sp)
   11768:	00500293          	li	t0,5
   1176c:	04412303          	lw	t1,68(sp)
   11770:	00532023          	sw	t0,0(t1)
   11774:	00010293          	mv	t0,sp
   11778:	00800313          	li	t1,8
   1177c:	00400393          	li	t2,4
   11780:	02730333          	mul	t1,t1,t2
   11784:	006282b3          	add	t0,t0,t1
   11788:	04512423          	sw	t0,72(sp)
   1178c:	00700293          	li	t0,7
   11790:	04812303          	lw	t1,72(sp)
   11794:	00532023          	sw	t0,0(t1)
   11798:	00010293          	mv	t0,sp
   1179c:	00900313          	li	t1,9
   117a0:	00400393          	li	t2,4
   117a4:	02730333          	mul	t1,t1,t2
   117a8:	006282b3          	add	t0,t0,t1
   117ac:	04512623          	sw	t0,76(sp)
   117b0:	00800293          	li	t0,8
   117b4:	04c12303          	lw	t1,76(sp)
   117b8:	00532023          	sw	t0,0(t1)
   117bc:	00000293          	li	t0,0
   117c0:	04512823          	sw	t0,80(sp)
   117c4:	00900293          	li	t0,9
   117c8:	04512a23          	sw	t0,84(sp)
   117cc:	00010293          	mv	t0,sp
   117d0:	00000313          	li	t1,0
   117d4:	00400393          	li	t2,4
   117d8:	02730333          	mul	t1,t1,t2
   117dc:	006282b3          	add	t0,t0,t1
   117e0:	04512c23          	sw	t0,88(sp)
   117e4:	05012283          	lw	t0,80(sp)
   117e8:	04512e23          	sw	t0,92(sp)
   117ec:	05412283          	lw	t0,84(sp)
   117f0:	06512023          	sw	t0,96(sp)
   117f4:	05812503          	lw	a0,88(sp)
   117f8:	05c12583          	lw	a1,92(sp)
   117fc:	06012603          	lw	a2,96(sp)
   11800:	00000097          	auipc	ra,0x0
   11804:	914080e7          	jalr	-1772(ra) # 11114 <QuickSort>
   11808:	06a12223          	sw	a0,100(sp)
   1180c:	06412283          	lw	t0,100(sp)
   11810:	04512823          	sw	t0,80(sp)
   11814:	0040006f          	j	11818 <while_entry_3>

00011818 <while_entry_3>:
   11818:	05012283          	lw	t0,80(sp)
   1181c:	06512423          	sw	t0,104(sp)

00011820 <.Lpcrel_hi1>:
   11820:	00003297          	auipc	t0,0x3
   11824:	57828293          	add	t0,t0,1400 # 14d98 <n_0>
   11828:	0002a283          	lw	t0,0(t0)
   1182c:	06512623          	sw	t0,108(sp)
   11830:	06812283          	lw	t0,104(sp)
   11834:	06c12303          	lw	t1,108(sp)
   11838:	0062a2b3          	slt	t0,t0,t1
   1183c:	06512823          	sw	t0,112(sp)
   11840:	07012283          	lw	t0,112(sp)
   11844:	00029463          	bnez	t0,1184c <Label8>
   11848:	0900006f          	j	118d8 <while_end_3>

0001184c <Label8>:
   1184c:	0040006f          	j	11850 <while_body_3>

00011850 <while_body_3>:
   11850:	05012283          	lw	t0,80(sp)
   11854:	06512c23          	sw	t0,120(sp)
   11858:	00010293          	mv	t0,sp
   1185c:	07812303          	lw	t1,120(sp)
   11860:	00400393          	li	t2,4
   11864:	02730333          	mul	t1,t1,t2
   11868:	006282b3          	add	t0,t0,t1
   1186c:	06512e23          	sw	t0,124(sp)
   11870:	07c12283          	lw	t0,124(sp)
   11874:	0002a283          	lw	t0,0(t0)
   11878:	08512023          	sw	t0,128(sp)
   1187c:	08012283          	lw	t0,128(sp)
   11880:	06512a23          	sw	t0,116(sp)
   11884:	07412283          	lw	t0,116(sp)
   11888:	08512223          	sw	t0,132(sp)
   1188c:	08412503          	lw	a0,132(sp)
   11890:	00000097          	auipc	ra,0x0
   11894:	314080e7          	jalr	788(ra) # 11ba4 <putint>
   11898:	00a00293          	li	t0,10
   1189c:	06512a23          	sw	t0,116(sp)
   118a0:	07412283          	lw	t0,116(sp)
   118a4:	08512423          	sw	t0,136(sp)
   118a8:	08812503          	lw	a0,136(sp)
   118ac:	00000097          	auipc	ra,0x0
   118b0:	4a4080e7          	jalr	1188(ra) # 11d50 <putch>
   118b4:	05012283          	lw	t0,80(sp)
   118b8:	08512623          	sw	t0,140(sp)
   118bc:	08c12283          	lw	t0,140(sp)
   118c0:	00100313          	li	t1,1
   118c4:	006282b3          	add	t0,t0,t1
   118c8:	08512823          	sw	t0,144(sp)
   118cc:	09012283          	lw	t0,144(sp)
   118d0:	04512823          	sw	t0,80(sp)
   118d4:	f45ff06f          	j	11818 <while_entry_3>

000118d8 <while_end_3>:
   118d8:	00000513          	li	a0,0
   118dc:	09c12083          	lw	ra,156(sp)
   118e0:	0a010113          	add	sp,sp,160
   118e4:	00008067          	ret

000118e8 <getint>:
   118e8:	fd010113          	add	sp,sp,-48
   118ec:	02112623          	sw	ra,44(sp)
   118f0:	02812423          	sw	s0,40(sp)
   118f4:	02912223          	sw	s1,36(sp)
   118f8:	03212023          	sw	s2,32(sp)
   118fc:	01312e23          	sw	s3,28(sp)
   11900:	01412c23          	sw	s4,24(sp)
   11904:	01512a23          	sw	s5,20(sp)
   11908:	01612823          	sw	s6,16(sp)
   1190c:	000155b7          	lui	a1,0x15
   11910:	da45c503          	lbu	a0,-604(a1) # 14da4 <last_char_valid>
   11914:	00050a63          	beqz	a0,11928 <.LBB0_2>
   11918:	00015537          	lui	a0,0x15
   1191c:	da052503          	lw	a0,-608(a0) # 14da0 <last_char>
   11920:	da058223          	sb	zero,-604(a1)
   11924:	02c0006f          	j	11950 <.LBB0_5>

00011928 <.LBB0_2>:
   11928:	00c10593          	add	a1,sp,12
   1192c:	00100613          	li	a2,1
   11930:	00100413          	li	s0,1
   11934:	00000513          	li	a0,0
   11938:	00001097          	auipc	ra,0x1
   1193c:	3b4080e7          	jalr	948(ra) # 12cec <read>
   11940:	00850663          	beq	a0,s0,1194c <.LBB0_4>
   11944:	fff00513          	li	a0,-1
   11948:	0080006f          	j	11950 <.LBB0_5>

0001194c <.LBB0_4>:
   1194c:	00c14503          	lbu	a0,12(sp)

00011950 <.LBB0_5>:
   11950:	00500413          	li	s0,5
   11954:	000154b7          	lui	s1,0x15
   11958:	00015937          	lui	s2,0x15
   1195c:	00100993          	li	s3,1
   11960:	02000a13          	li	s4,32
   11964:	00c0006f          	j	11970 <.LBB0_7>

00011968 <.LBB0_6>:
   11968:	da092503          	lw	a0,-608(s2) # 14da0 <last_char>
   1196c:	da048223          	sb	zero,-604(s1) # 14da4 <last_char_valid>

00011970 <.LBB0_7>:
   11970:	ff750593          	add	a1,a0,-9
   11974:	0285fa63          	bgeu	a1,s0,119a8 <.LBB0_12>

00011978 <.LBB0_8>:
   11978:	da44c503          	lbu	a0,-604(s1)
   1197c:	fe0516e3          	bnez	a0,11968 <.LBB0_6>
   11980:	00d10593          	add	a1,sp,13
   11984:	00100613          	li	a2,1
   11988:	00000513          	li	a0,0
   1198c:	00001097          	auipc	ra,0x1
   11990:	360080e7          	jalr	864(ra) # 12cec <read>
   11994:	01350663          	beq	a0,s3,119a0 <.LBB0_11>
   11998:	fff00513          	li	a0,-1
   1199c:	fd5ff06f          	j	11970 <.LBB0_7>

000119a0 <.LBB0_11>:
   119a0:	00d14503          	lbu	a0,13(sp)
   119a4:	fcdff06f          	j	11970 <.LBB0_7>

000119a8 <.LBB0_12>:
   119a8:	fd4508e3          	beq	a0,s4,11978 <.LBB0_8>
   119ac:	02d00593          	li	a1,45
   119b0:	fd350413          	add	s0,a0,-45
   119b4:	04b51463          	bne	a0,a1,119fc <.LBB0_19>
   119b8:	000155b7          	lui	a1,0x15
   119bc:	da45c503          	lbu	a0,-604(a1) # 14da4 <last_char_valid>
   119c0:	00050a63          	beqz	a0,119d4 <.LBB0_16>
   119c4:	00015537          	lui	a0,0x15
   119c8:	da052503          	lw	a0,-608(a0) # 14da0 <last_char>
   119cc:	da058223          	sb	zero,-604(a1)
   119d0:	02c0006f          	j	119fc <.LBB0_19>

000119d4 <.LBB0_16>:
   119d4:	00e10593          	add	a1,sp,14
   119d8:	00100613          	li	a2,1
   119dc:	00100493          	li	s1,1
   119e0:	00000513          	li	a0,0
   119e4:	00001097          	auipc	ra,0x1
   119e8:	308080e7          	jalr	776(ra) # 12cec <read>
   119ec:	00950663          	beq	a0,s1,119f8 <.LBB0_18>
   119f0:	fff00513          	li	a0,-1
   119f4:	0080006f          	j	119fc <.LBB0_19>

000119f8 <.LBB0_18>:
   119f8:	00e14503          	lbu	a0,14(sp)

000119fc <.LBB0_19>:
   119fc:	fd050593          	add	a1,a0,-48
   11a00:	00900613          	li	a2,9
   11a04:	00143913          	seqz	s2,s0
   11a08:	00000413          	li	s0,0
   11a0c:	06b66c63          	bltu	a2,a1,11a84 <.LBB0_28>
   11a10:	000159b7          	lui	s3,0x15
   11a14:	da498583          	lb	a1,-604(s3) # 14da4 <last_char_valid>
   11a18:	00a00b13          	li	s6,10
   11a1c:	00015a37          	lui	s4,0x15
   11a20:	00100a93          	li	s5,1
   11a24:	00050493          	mv	s1,a0
   11a28:	0280006f          	j	11a50 <.LBB0_23>

00011a2c <.LBB0_21>:
   11a2c:	da0a2503          	lw	a0,-608(s4) # 14da0 <last_char>
   11a30:	00000593          	li	a1,0
   11a34:	da098223          	sb	zero,-604(s3)

00011a38 <.LBB0_22>:
   11a38:	03640633          	mul	a2,s0,s6
   11a3c:	00c48633          	add	a2,s1,a2
   11a40:	fd050693          	add	a3,a0,-48
   11a44:	fd060413          	add	s0,a2,-48
   11a48:	00050493          	mv	s1,a0
   11a4c:	0366fc63          	bgeu	a3,s6,11a84 <.LBB0_28>

00011a50 <.LBB0_23>:
   11a50:	0015f513          	and	a0,a1,1
   11a54:	fc051ce3          	bnez	a0,11a2c <.LBB0_21>
   11a58:	00f10593          	add	a1,sp,15
   11a5c:	00100613          	li	a2,1
   11a60:	00000513          	li	a0,0
   11a64:	00001097          	auipc	ra,0x1
   11a68:	288080e7          	jalr	648(ra) # 12cec <read>
   11a6c:	01550663          	beq	a0,s5,11a78 <.LBB0_26>
   11a70:	fff00513          	li	a0,-1
   11a74:	0080006f          	j	11a7c <.LBB0_27>

00011a78 <.LBB0_26>:
   11a78:	00f14503          	lbu	a0,15(sp)

00011a7c <.LBB0_27>:
   11a7c:	da498583          	lb	a1,-604(s3)
   11a80:	fb9ff06f          	j	11a38 <.LBB0_22>

00011a84 <.LBB0_28>:
   11a84:	000155b7          	lui	a1,0x15
   11a88:	daa5a023          	sw	a0,-608(a1) # 14da0 <last_char>
   11a8c:	00015537          	lui	a0,0x15
   11a90:	00100593          	li	a1,1
   11a94:	dab50223          	sb	a1,-604(a0) # 14da4 <last_char_valid>
   11a98:	00090463          	beqz	s2,11aa0 <.LBB0_30>
   11a9c:	40800433          	neg	s0,s0

00011aa0 <.LBB0_30>:
   11aa0:	00040513          	mv	a0,s0
   11aa4:	01012b03          	lw	s6,16(sp)
   11aa8:	01412a83          	lw	s5,20(sp)
   11aac:	01812a03          	lw	s4,24(sp)
   11ab0:	01c12983          	lw	s3,28(sp)
   11ab4:	02012903          	lw	s2,32(sp)
   11ab8:	02412483          	lw	s1,36(sp)
   11abc:	02812403          	lw	s0,40(sp)
   11ac0:	02c12083          	lw	ra,44(sp)
   11ac4:	03010113          	add	sp,sp,48
   11ac8:	00008067          	ret

00011acc <getch>:
   11acc:	ff010113          	add	sp,sp,-16
   11ad0:	00112623          	sw	ra,12(sp)
   11ad4:	00812423          	sw	s0,8(sp)
   11ad8:	000155b7          	lui	a1,0x15
   11adc:	da45c503          	lbu	a0,-604(a1) # 14da4 <last_char_valid>
   11ae0:	02050063          	beqz	a0,11b00 <.LBB1_2>
   11ae4:	00015537          	lui	a0,0x15
   11ae8:	da052503          	lw	a0,-608(a0) # 14da0 <last_char>
   11aec:	da058223          	sb	zero,-604(a1)
   11af0:	00812403          	lw	s0,8(sp)
   11af4:	00c12083          	lw	ra,12(sp)
   11af8:	01010113          	add	sp,sp,16
   11afc:	00008067          	ret

00011b00 <.LBB1_2>:
   11b00:	00710593          	add	a1,sp,7
   11b04:	00100613          	li	a2,1
   11b08:	00100413          	li	s0,1
   11b0c:	00000513          	li	a0,0
   11b10:	00001097          	auipc	ra,0x1
   11b14:	1dc080e7          	jalr	476(ra) # 12cec <read>
   11b18:	00850c63          	beq	a0,s0,11b30 <.LBB1_4>
   11b1c:	fff00513          	li	a0,-1
   11b20:	00812403          	lw	s0,8(sp)
   11b24:	00c12083          	lw	ra,12(sp)
   11b28:	01010113          	add	sp,sp,16
   11b2c:	00008067          	ret

00011b30 <.LBB1_4>:
   11b30:	00714503          	lbu	a0,7(sp)
   11b34:	00812403          	lw	s0,8(sp)
   11b38:	00c12083          	lw	ra,12(sp)
   11b3c:	01010113          	add	sp,sp,16
   11b40:	00008067          	ret

00011b44 <getarray>:
   11b44:	ff010113          	add	sp,sp,-16
   11b48:	00112623          	sw	ra,12(sp)
   11b4c:	00812423          	sw	s0,8(sp)
   11b50:	00912223          	sw	s1,4(sp)
   11b54:	01212023          	sw	s2,0(sp)
   11b58:	00050413          	mv	s0,a0
   11b5c:	00000097          	auipc	ra,0x0
   11b60:	d8c080e7          	jalr	-628(ra) # 118e8 <getint>
   11b64:	00050913          	mv	s2,a0
   11b68:	02a05063          	blez	a0,11b88 <.LBB2_3>
   11b6c:	00090493          	mv	s1,s2

00011b70 <.LBB2_2>:
   11b70:	00000097          	auipc	ra,0x0
   11b74:	d78080e7          	jalr	-648(ra) # 118e8 <getint>
   11b78:	00a42023          	sw	a0,0(s0)
   11b7c:	fff48493          	add	s1,s1,-1
   11b80:	00440413          	add	s0,s0,4
   11b84:	fe0496e3          	bnez	s1,11b70 <.LBB2_2>

00011b88 <.LBB2_3>:
   11b88:	00090513          	mv	a0,s2
   11b8c:	00012903          	lw	s2,0(sp)
   11b90:	00412483          	lw	s1,4(sp)
   11b94:	00812403          	lw	s0,8(sp)
   11b98:	00c12083          	lw	ra,12(sp)
   11b9c:	01010113          	add	sp,sp,16
   11ba0:	00008067          	ret

00011ba4 <putint>:
   11ba4:	00050593          	mv	a1,a0
   11ba8:	00100513          	li	a0,1
   11bac:	00000317          	auipc	t1,0x0
   11bb0:	00830067          	jr	8(t1) # 11bb4 <PutInt>

00011bb4 <PutInt>:
   11bb4:	fd010113          	add	sp,sp,-48
   11bb8:	02112623          	sw	ra,44(sp)
   11bbc:	02812423          	sw	s0,40(sp)
   11bc0:	02912223          	sw	s1,36(sp)
   11bc4:	03212023          	sw	s2,32(sp)
   11bc8:	01312e23          	sw	s3,28(sp)
   11bcc:	01412c23          	sw	s4,24(sp)
   11bd0:	00058493          	mv	s1,a1
   11bd4:	00050913          	mv	s2,a0
   11bd8:	0005cc63          	bltz	a1,11bf0 <.LBB4_3>
   11bdc:	06049463          	bnez	s1,11c44 <.LBB4_6>
   11be0:	03000513          	li	a0,48
   11be4:	00a10b23          	sb	a0,22(sp)
   11be8:	01300413          	li	s0,19
   11bec:	0a80006f          	j	11c94 <.LBB4_9>

00011bf0 <.LBB4_3>:
   11bf0:	00015437          	lui	s0,0x15
   11bf4:	da842603          	lw	a2,-600(s0) # 14da8 <output_buffer_index>
   11bf8:	00160513          	add	a0,a2,1
   11bfc:	40153513          	sltiu	a0,a0,1025
   11c00:	00163593          	seqz	a1,a2
   11c04:	00a5e533          	or	a0,a1,a0
   11c08:	00051e63          	bnez	a0,11c24 <.LBB4_5>
   11c0c:	00015537          	lui	a0,0x15
   11c10:	dbc50593          	add	a1,a0,-580 # 14dbc <output_buffer>
   11c14:	00100513          	li	a0,1
   11c18:	00001097          	auipc	ra,0x1
   11c1c:	0e0080e7          	jalr	224(ra) # 12cf8 <write>
   11c20:	00000613          	li	a2,0

00011c24 <.LBB4_5>:
   11c24:	00015537          	lui	a0,0x15
   11c28:	dbc50513          	add	a0,a0,-580 # 14dbc <output_buffer>
   11c2c:	00a60533          	add	a0,a2,a0
   11c30:	02d00593          	li	a1,45
   11c34:	00b50023          	sb	a1,0(a0)
   11c38:	00160513          	add	a0,a2,1
   11c3c:	daa42423          	sw	a0,-600(s0)
   11c40:	409004b3          	neg	s1,s1

00011c44 <.LBB4_6>:
   11c44:	01300513          	li	a0,19
   11c48:	666665b7          	lui	a1,0x66666
   11c4c:	66758593          	add	a1,a1,1639 # 66666667 <timer_us+0x6664e4ab>
   11c50:	00a00813          	li	a6,10
   11c54:	00310693          	add	a3,sp,3
   11c58:	01200713          	li	a4,18

00011c5c <.LBB4_7>:
   11c5c:	02b497b3          	mulh	a5,s1,a1
   11c60:	01f7d413          	srl	s0,a5,0x1f
   11c64:	4027d793          	sra	a5,a5,0x2
   11c68:	008787b3          	add	a5,a5,s0
   11c6c:	03078433          	mul	s0,a5,a6
   11c70:	40848433          	sub	s0,s1,s0
   11c74:	03040413          	add	s0,s0,48
   11c78:	00a68633          	add	a2,a3,a0
   11c7c:	00860023          	sb	s0,0(a2)
   11c80:	00948613          	add	a2,s1,9
   11c84:	fff50513          	add	a0,a0,-1
   11c88:	00078493          	mv	s1,a5
   11c8c:	fcc768e3          	bltu	a4,a2,11c5c <.LBB4_7>
   11c90:	00150413          	add	s0,a0,1

00011c94 <.LBB4_9>:
   11c94:	00310513          	add	a0,sp,3
   11c98:	008509b3          	add	s3,a0,s0
   11c9c:	01400513          	li	a0,20
   11ca0:	00200593          	li	a1,2
   11ca4:	40850a33          	sub	s4,a0,s0
   11ca8:	00b91e63          	bne	s2,a1,11cc4 <.LBB4_11>
   11cac:	00200513          	li	a0,2
   11cb0:	00098593          	mv	a1,s3
   11cb4:	000a0613          	mv	a2,s4
   11cb8:	00001097          	auipc	ra,0x1
   11cbc:	040080e7          	jalr	64(ra) # 12cf8 <write>
   11cc0:	0700006f          	j	11d30 <.LBB4_15>

00011cc4 <.LBB4_11>:
   11cc4:	00015937          	lui	s2,0x15
   11cc8:	da892483          	lw	s1,-600(s2) # 14da8 <output_buffer_index>
   11ccc:	01448533          	add	a0,s1,s4
   11cd0:	40153513          	sltiu	a0,a0,1025
   11cd4:	0014b593          	seqz	a1,s1
   11cd8:	00a5e533          	or	a0,a1,a0
   11cdc:	02051263          	bnez	a0,11d00 <.LBB4_13>
   11ce0:	00015537          	lui	a0,0x15
   11ce4:	dbc50593          	add	a1,a0,-580 # 14dbc <output_buffer>
   11ce8:	00100513          	li	a0,1
   11cec:	00048613          	mv	a2,s1
   11cf0:	00001097          	auipc	ra,0x1
   11cf4:	008080e7          	jalr	8(ra) # 12cf8 <write>
   11cf8:	00000493          	li	s1,0
   11cfc:	da092423          	sw	zero,-600(s2)

00011d00 <.LBB4_13>:
   11d00:	020a0863          	beqz	s4,11d30 <.LBB4_15>
   11d04:	00015537          	lui	a0,0x15
   11d08:	dbc50513          	add	a0,a0,-580 # 14dbc <output_buffer>
   11d0c:	00a48533          	add	a0,s1,a0
   11d10:	00098593          	mv	a1,s3
   11d14:	000a0613          	mv	a2,s4
   11d18:	00001097          	auipc	ra,0x1
   11d1c:	054080e7          	jalr	84(ra) # 12d6c <memcpy>
   11d20:	40848533          	sub	a0,s1,s0
   11d24:	01450513          	add	a0,a0,20
   11d28:	000155b7          	lui	a1,0x15
   11d2c:	daa5a423          	sw	a0,-600(a1) # 14da8 <output_buffer_index>

00011d30 <.LBB4_15>:
   11d30:	01812a03          	lw	s4,24(sp)
   11d34:	01c12983          	lw	s3,28(sp)
   11d38:	02012903          	lw	s2,32(sp)
   11d3c:	02412483          	lw	s1,36(sp)
   11d40:	02812403          	lw	s0,40(sp)
   11d44:	02c12083          	lw	ra,44(sp)
   11d48:	03010113          	add	sp,sp,48
   11d4c:	00008067          	ret

00011d50 <putch>:
   11d50:	ff010113          	add	sp,sp,-16
   11d54:	00112623          	sw	ra,12(sp)
   11d58:	00812423          	sw	s0,8(sp)
   11d5c:	00912223          	sw	s1,4(sp)
   11d60:	000154b7          	lui	s1,0x15
   11d64:	da84a603          	lw	a2,-600(s1) # 14da8 <output_buffer_index>
   11d68:	00160593          	add	a1,a2,1
   11d6c:	4015b593          	sltiu	a1,a1,1025
   11d70:	00163693          	seqz	a3,a2
   11d74:	00b6e5b3          	or	a1,a3,a1
   11d78:	00050413          	mv	s0,a0
   11d7c:	00059e63          	bnez	a1,11d98 <.LBB5_2>
   11d80:	00015537          	lui	a0,0x15
   11d84:	dbc50593          	add	a1,a0,-580 # 14dbc <output_buffer>
   11d88:	00100513          	li	a0,1
   11d8c:	00001097          	auipc	ra,0x1
   11d90:	f6c080e7          	jalr	-148(ra) # 12cf8 <write>
   11d94:	00000613          	li	a2,0

00011d98 <.LBB5_2>:
   11d98:	0ff47513          	zext.b	a0,s0
   11d9c:	000155b7          	lui	a1,0x15
   11da0:	dbc58593          	add	a1,a1,-580 # 14dbc <output_buffer>
   11da4:	00b606b3          	add	a3,a2,a1
   11da8:	00868023          	sb	s0,0(a3)
   11dac:	00160693          	add	a3,a2,1
   11db0:	00c6b633          	sltu	a2,a3,a2
   11db4:	ff650513          	add	a0,a0,-10
   11db8:	00a03533          	snez	a0,a0
   11dbc:	00c56533          	or	a0,a0,a2
   11dc0:	dad4a423          	sw	a3,-600(s1)
   11dc4:	00051e63          	bnez	a0,11de0 <.LBB5_4>
   11dc8:	00100513          	li	a0,1
   11dcc:	00068613          	mv	a2,a3
   11dd0:	00001097          	auipc	ra,0x1
   11dd4:	f28080e7          	jalr	-216(ra) # 12cf8 <write>
   11dd8:	00015537          	lui	a0,0x15
   11ddc:	da052423          	sw	zero,-600(a0) # 14da8 <output_buffer_index>

00011de0 <.LBB5_4>:
   11de0:	00412483          	lw	s1,4(sp)
   11de4:	00812403          	lw	s0,8(sp)
   11de8:	00c12083          	lw	ra,12(sp)
   11dec:	01010113          	add	sp,sp,16
   11df0:	00008067          	ret

00011df4 <putarray>:
   11df4:	fe010113          	add	sp,sp,-32
   11df8:	00112e23          	sw	ra,28(sp)
   11dfc:	00812c23          	sw	s0,24(sp)
   11e00:	00912a23          	sw	s1,20(sp)
   11e04:	01212823          	sw	s2,16(sp)
   11e08:	01312623          	sw	s3,12(sp)
   11e0c:	01412423          	sw	s4,8(sp)
   11e10:	00058413          	mv	s0,a1
   11e14:	00050493          	mv	s1,a0
   11e18:	00100513          	li	a0,1
   11e1c:	00048593          	mv	a1,s1
   11e20:	00000097          	auipc	ra,0x0
   11e24:	d94080e7          	jalr	-620(ra) # 11bb4 <PutInt>
   11e28:	000159b7          	lui	s3,0x15
   11e2c:	da89a603          	lw	a2,-600(s3) # 14da8 <output_buffer_index>
   11e30:	00160513          	add	a0,a2,1
   11e34:	40153513          	sltiu	a0,a0,1025
   11e38:	00163593          	seqz	a1,a2
   11e3c:	00a5e533          	or	a0,a1,a0
   11e40:	00051e63          	bnez	a0,11e5c <.LBB6_2>
   11e44:	00015537          	lui	a0,0x15
   11e48:	dbc50593          	add	a1,a0,-580 # 14dbc <output_buffer>
   11e4c:	00100513          	li	a0,1
   11e50:	00001097          	auipc	ra,0x1
   11e54:	ea8080e7          	jalr	-344(ra) # 12cf8 <write>
   11e58:	00000613          	li	a2,0

00011e5c <.LBB6_2>:
   11e5c:	00015537          	lui	a0,0x15
   11e60:	dbc50913          	add	s2,a0,-580 # 14dbc <output_buffer>
   11e64:	01260533          	add	a0,a2,s2
   11e68:	03a00593          	li	a1,58
   11e6c:	00b50023          	sb	a1,0(a0)
   11e70:	00160613          	add	a2,a2,1
   11e74:	dac9a423          	sw	a2,-600(s3)
   11e78:	06905663          	blez	s1,11ee4 <.LBB6_7>
   11e7c:	02000993          	li	s3,32
   11e80:	00015a37          	lui	s4,0x15
   11e84:	0340006f          	j	11eb8 <.LBB6_5>

00011e88 <.LBB6_4>:
   11e88:	01260533          	add	a0,a2,s2
   11e8c:	01350023          	sb	s3,0(a0)
   11e90:	00160513          	add	a0,a2,1
   11e94:	daaa2423          	sw	a0,-600(s4) # 14da8 <output_buffer_index>
   11e98:	00042583          	lw	a1,0(s0)
   11e9c:	00100513          	li	a0,1
   11ea0:	00000097          	auipc	ra,0x0
   11ea4:	d14080e7          	jalr	-748(ra) # 11bb4 <PutInt>
   11ea8:	da8a2603          	lw	a2,-600(s4)
   11eac:	fff48493          	add	s1,s1,-1
   11eb0:	00440413          	add	s0,s0,4
   11eb4:	02048863          	beqz	s1,11ee4 <.LBB6_7>

00011eb8 <.LBB6_5>:
   11eb8:	00160513          	add	a0,a2,1
   11ebc:	40153513          	sltiu	a0,a0,1025
   11ec0:	00163593          	seqz	a1,a2
   11ec4:	00a5e533          	or	a0,a1,a0
   11ec8:	fc0510e3          	bnez	a0,11e88 <.LBB6_4>
   11ecc:	00100513          	li	a0,1
   11ed0:	00090593          	mv	a1,s2
   11ed4:	00001097          	auipc	ra,0x1
   11ed8:	e24080e7          	jalr	-476(ra) # 12cf8 <write>
   11edc:	00000613          	li	a2,0
   11ee0:	fa9ff06f          	j	11e88 <.LBB6_4>

00011ee4 <.LBB6_7>:
   11ee4:	00160413          	add	s0,a2,1
   11ee8:	40143513          	sltiu	a0,s0,1025
   11eec:	00163593          	seqz	a1,a2
   11ef0:	00a5e533          	or	a0,a1,a0
   11ef4:	02050463          	beqz	a0,11f1c <.LBB6_9>
   11ef8:	00015537          	lui	a0,0x15
   11efc:	dbc50513          	add	a0,a0,-580 # 14dbc <output_buffer>
   11f00:	00a60533          	add	a0,a2,a0
   11f04:	00a00593          	li	a1,10
   11f08:	00b50023          	sb	a1,0(a0)
   11f0c:	00015537          	lui	a0,0x15
   11f10:	da852423          	sw	s0,-600(a0) # 14da8 <output_buffer_index>
   11f14:	02041863          	bnez	s0,11f44 <.LBB6_10>
   11f18:	04c0006f          	j	11f64 <.LBB6_11>

00011f1c <.LBB6_9>:
   11f1c:	000154b7          	lui	s1,0x15
   11f20:	dbc48593          	add	a1,s1,-580 # 14dbc <output_buffer>
   11f24:	00100513          	li	a0,1
   11f28:	00100413          	li	s0,1
   11f2c:	00001097          	auipc	ra,0x1
   11f30:	dcc080e7          	jalr	-564(ra) # 12cf8 <write>
   11f34:	00a00513          	li	a0,10
   11f38:	daa48e23          	sb	a0,-580(s1)
   11f3c:	00015537          	lui	a0,0x15
   11f40:	da852423          	sw	s0,-600(a0) # 14da8 <output_buffer_index>

00011f44 <.LBB6_10>:
   11f44:	00015537          	lui	a0,0x15
   11f48:	dbc50593          	add	a1,a0,-580 # 14dbc <output_buffer>
   11f4c:	00100513          	li	a0,1
   11f50:	00040613          	mv	a2,s0
   11f54:	00001097          	auipc	ra,0x1
   11f58:	da4080e7          	jalr	-604(ra) # 12cf8 <write>
   11f5c:	00015537          	lui	a0,0x15
   11f60:	da052423          	sw	zero,-600(a0) # 14da8 <output_buffer_index>

00011f64 <.LBB6_11>:
   11f64:	00812a03          	lw	s4,8(sp)
   11f68:	00c12983          	lw	s3,12(sp)
   11f6c:	01012903          	lw	s2,16(sp)
   11f70:	01412483          	lw	s1,20(sp)
   11f74:	01812403          	lw	s0,24(sp)
   11f78:	01c12083          	lw	ra,28(sp)
   11f7c:	02010113          	add	sp,sp,32
   11f80:	00008067          	ret

00011f84 <after_main>:
   11f84:	f9010113          	add	sp,sp,-112
   11f88:	06112623          	sw	ra,108(sp)
   11f8c:	06812423          	sw	s0,104(sp)
   11f90:	06912223          	sw	s1,100(sp)
   11f94:	07212023          	sw	s2,96(sp)
   11f98:	05312e23          	sw	s3,92(sp)
   11f9c:	05412c23          	sw	s4,88(sp)
   11fa0:	05512a23          	sw	s5,84(sp)
   11fa4:	05612823          	sw	s6,80(sp)
   11fa8:	05712623          	sw	s7,76(sp)
   11fac:	05812423          	sw	s8,72(sp)
   11fb0:	05912223          	sw	s9,68(sp)
   11fb4:	05a12023          	sw	s10,64(sp)
   11fb8:	03b12e23          	sw	s11,60(sp)
   11fbc:	00015537          	lui	a0,0x15
   11fc0:	da852603          	lw	a2,-600(a0) # 14da8 <output_buffer_index>
   11fc4:	00015537          	lui	a0,0x15
   11fc8:	dbc50a93          	add	s5,a0,-580 # 14dbc <output_buffer>
   11fcc:	00100513          	li	a0,1
   11fd0:	00100913          	li	s2,1
   11fd4:	000a8593          	mv	a1,s5
   11fd8:	00001097          	auipc	ra,0x1
   11fdc:	d20080e7          	jalr	-736(ra) # 12cf8 <write>
   11fe0:	00015537          	lui	a0,0x15
   11fe4:	d9c52503          	lw	a0,-612(a0) # 14d9c <timer_idx>
   11fe8:	00200593          	li	a1,2
   11fec:	36b546e3          	blt	a0,a1,12b58 <.LBB7_79>
   11ff0:	02710413          	add	s0,sp,39
   11ff4:	00015537          	lui	a0,0x15
   11ff8:	1bc50513          	add	a0,a0,444 # 151bc <timer_h>
   11ffc:	02a12023          	sw	a0,32(sp)
   12000:	02d00b93          	li	s7,45
   12004:	66666537          	lui	a0,0x66666
   12008:	66750c13          	add	s8,a0,1639 # 66666667 <timer_us+0x6664e4ab>
   1200c:	00a00c93          	li	s9,10
   12010:	01300d13          	li	s10,19
   12014:	00016537          	lui	a0,0x16
   12018:	1bc50513          	add	a0,a0,444 # 161bc <timer_m>
   1201c:	00a12e23          	sw	a0,28(sp)
   12020:	00017537          	lui	a0,0x17
   12024:	1bc50513          	add	a0,a0,444 # 171bc <timer_s>
   12028:	00a12c23          	sw	a0,24(sp)
   1202c:	00018537          	lui	a0,0x18
   12030:	1bc50513          	add	a0,a0,444 # 181bc <timer_us>
   12034:	00a12a23          	sw	a0,20(sp)
   12038:	431be537          	lui	a0,0x431be
   1203c:	e8350513          	add	a0,a0,-381 # 431bde83 <timer_us+0x431a5cc7>
   12040:	00a12823          	sw	a0,16(sp)
   12044:	000f4537          	lui	a0,0xf4
   12048:	24050513          	add	a0,a0,576 # f4240 <timer_us+0xdc084>
   1204c:	00a12623          	sw	a0,12(sp)
   12050:	88889537          	lui	a0,0x88889
   12054:	88950513          	add	a0,a0,-1911 # 88888889 <timer_us+0x888706cd>
   12058:	00a12423          	sw	a0,8(sp)
   1205c:	0c40006f          	j	12120 <.LBB7_3>

00012060 <.LBB7_2>:
   12060:	000da503          	lw	a0,0(s11)
   12064:	000187b7          	lui	a5,0x18
   12068:	1bc7a583          	lw	a1,444(a5) # 181bc <timer_us>
   1206c:	000b2603          	lw	a2,0(s6)
   12070:	000178b7          	lui	a7,0x17
   12074:	1bc8a683          	lw	a3,444(a7) # 171bc <timer_s>
   12078:	00a58533          	add	a0,a1,a0
   1207c:	00c685b3          	add	a1,a3,a2
   12080:	01012603          	lw	a2,16(sp)
   12084:	02c51633          	mulh	a2,a0,a2
   12088:	01f65693          	srl	a3,a2,0x1f
   1208c:	41265613          	sra	a2,a2,0x12
   12090:	00d60633          	add	a2,a2,a3
   12094:	000a2683          	lw	a3,0(s4)
   12098:	00016837          	lui	a6,0x16
   1209c:	1bc82703          	lw	a4,444(a6) # 161bc <timer_m>
   120a0:	00c12483          	lw	s1,12(sp)
   120a4:	02960633          	mul	a2,a2,s1
   120a8:	40c50533          	sub	a0,a0,a2
   120ac:	1aa7ae23          	sw	a0,444(a5)
   120b0:	00d70533          	add	a0,a4,a3
   120b4:	00812483          	lw	s1,8(sp)
   120b8:	02959633          	mulh	a2,a1,s1
   120bc:	00b60633          	add	a2,a2,a1
   120c0:	01f65693          	srl	a3,a2,0x1f
   120c4:	40565613          	sra	a2,a2,0x5
   120c8:	00d60633          	add	a2,a2,a3
   120cc:	0009a683          	lw	a3,0(s3)
   120d0:	000157b7          	lui	a5,0x15
   120d4:	1bc7a703          	lw	a4,444(a5) # 151bc <timer_h>
   120d8:	03c00293          	li	t0,60
   120dc:	02560633          	mul	a2,a2,t0
   120e0:	40c585b3          	sub	a1,a1,a2
   120e4:	1ab8ae23          	sw	a1,444(a7)
   120e8:	00d705b3          	add	a1,a4,a3
   120ec:	1ab7ae23          	sw	a1,444(a5)
   120f0:	029515b3          	mulh	a1,a0,s1
   120f4:	00a585b3          	add	a1,a1,a0
   120f8:	01f5d613          	srl	a2,a1,0x1f
   120fc:	4055d593          	sra	a1,a1,0x5
   12100:	00c585b3          	add	a1,a1,a2
   12104:	00015637          	lui	a2,0x15
   12108:	d9c62603          	lw	a2,-612(a2) # 14d9c <timer_idx>
   1210c:	025585b3          	mul	a1,a1,t0
   12110:	40b50533          	sub	a0,a0,a1
   12114:	00190913          	add	s2,s2,1
   12118:	1aa82e23          	sw	a0,444(a6)
   1211c:	4cc95e63          	bge	s2,a2,125f8 <.LBB7_41>

00012120 <.LBB7_3>:
   12120:	05400513          	li	a0,84
   12124:	02a103a3          	sb	a0,39(sp)
   12128:	00200513          	li	a0,2
   1212c:	02710593          	add	a1,sp,39
   12130:	00100613          	li	a2,1
   12134:	00001097          	auipc	ra,0x1
   12138:	bc4080e7          	jalr	-1084(ra) # 12cf8 <write>
   1213c:	06900513          	li	a0,105
   12140:	02a103a3          	sb	a0,39(sp)
   12144:	00200513          	li	a0,2
   12148:	02710593          	add	a1,sp,39
   1214c:	00100613          	li	a2,1
   12150:	00001097          	auipc	ra,0x1
   12154:	ba8080e7          	jalr	-1112(ra) # 12cf8 <write>
   12158:	06d00513          	li	a0,109
   1215c:	02a103a3          	sb	a0,39(sp)
   12160:	00200513          	li	a0,2
   12164:	02710593          	add	a1,sp,39
   12168:	00100613          	li	a2,1
   1216c:	00001097          	auipc	ra,0x1
   12170:	b8c080e7          	jalr	-1140(ra) # 12cf8 <write>
   12174:	06500513          	li	a0,101
   12178:	02a103a3          	sb	a0,39(sp)
   1217c:	00200513          	li	a0,2
   12180:	02710593          	add	a1,sp,39
   12184:	00100613          	li	a2,1
   12188:	00001097          	auipc	ra,0x1
   1218c:	b70080e7          	jalr	-1168(ra) # 12cf8 <write>
   12190:	07200513          	li	a0,114
   12194:	02a103a3          	sb	a0,39(sp)
   12198:	00200513          	li	a0,2
   1219c:	02710593          	add	a1,sp,39
   121a0:	00100613          	li	a2,1
   121a4:	00001097          	auipc	ra,0x1
   121a8:	b54080e7          	jalr	-1196(ra) # 12cf8 <write>
   121ac:	03a00513          	li	a0,58
   121b0:	02a103a3          	sb	a0,39(sp)
   121b4:	00200513          	li	a0,2
   121b8:	02710593          	add	a1,sp,39
   121bc:	00100613          	li	a2,1
   121c0:	00001097          	auipc	ra,0x1
   121c4:	b38080e7          	jalr	-1224(ra) # 12cf8 <write>
   121c8:	02000513          	li	a0,32
   121cc:	02a103a3          	sb	a0,39(sp)
   121d0:	00200513          	li	a0,2
   121d4:	02710593          	add	a1,sp,39
   121d8:	00100613          	li	a2,1
   121dc:	00001097          	auipc	ra,0x1
   121e0:	b1c080e7          	jalr	-1252(ra) # 12cf8 <write>
   121e4:	00291d93          	sll	s11,s2,0x2
   121e8:	02012503          	lw	a0,32(sp)
   121ec:	00ad89b3          	add	s3,s11,a0
   121f0:	0009a483          	lw	s1,0(s3)
   121f4:	0004cc63          	bltz	s1,1220c <.LBB7_6>
   121f8:	04049e63          	bnez	s1,12254 <.LBB7_9>
   121fc:	03000513          	li	a0,48
   12200:	02a10d23          	sb	a0,58(sp)
   12204:	01300513          	li	a0,19
   12208:	0880006f          	j	12290 <.LBB7_12>

0001220c <.LBB7_6>:
   1220c:	000156b7          	lui	a3,0x15
   12210:	da86a603          	lw	a2,-600(a3) # 14da8 <output_buffer_index>
   12214:	00160513          	add	a0,a2,1
   12218:	40153513          	sltiu	a0,a0,1025
   1221c:	00163593          	seqz	a1,a2
   12220:	00a5e533          	or	a0,a1,a0
   12224:	00051e63          	bnez	a0,12240 <.LBB7_8>
   12228:	00100513          	li	a0,1
   1222c:	000a8593          	mv	a1,s5
   12230:	00001097          	auipc	ra,0x1
   12234:	ac8080e7          	jalr	-1336(ra) # 12cf8 <write>
   12238:	000156b7          	lui	a3,0x15
   1223c:	00000613          	li	a2,0

00012240 <.LBB7_8>:
   12240:	01560533          	add	a0,a2,s5
   12244:	01750023          	sb	s7,0(a0)
   12248:	00160513          	add	a0,a2,1
   1224c:	daa6a423          	sw	a0,-600(a3) # 14da8 <output_buffer_index>
   12250:	409004b3          	neg	s1,s1

00012254 <.LBB7_9>:
   12254:	01300513          	li	a0,19

00012258 <.LBB7_10>:
   12258:	038495b3          	mulh	a1,s1,s8
   1225c:	01f5d613          	srl	a2,a1,0x1f
   12260:	4025d593          	sra	a1,a1,0x2
   12264:	00c585b3          	add	a1,a1,a2
   12268:	03958633          	mul	a2,a1,s9
   1226c:	40c48633          	sub	a2,s1,a2
   12270:	03060613          	add	a2,a2,48
   12274:	00a406b3          	add	a3,s0,a0
   12278:	00c68023          	sb	a2,0(a3)
   1227c:	00948613          	add	a2,s1,9
   12280:	fff50513          	add	a0,a0,-1
   12284:	00058493          	mv	s1,a1
   12288:	fda678e3          	bgeu	a2,s10,12258 <.LBB7_10>
   1228c:	00150513          	add	a0,a0,1

00012290 <.LBB7_12>:
   12290:	00a405b3          	add	a1,s0,a0
   12294:	01400613          	li	a2,20
   12298:	40a60633          	sub	a2,a2,a0
   1229c:	00200513          	li	a0,2
   122a0:	00001097          	auipc	ra,0x1
   122a4:	a58080e7          	jalr	-1448(ra) # 12cf8 <write>
   122a8:	04800513          	li	a0,72
   122ac:	02a103a3          	sb	a0,39(sp)
   122b0:	00200513          	li	a0,2
   122b4:	02710593          	add	a1,sp,39
   122b8:	00100613          	li	a2,1
   122bc:	00001097          	auipc	ra,0x1
   122c0:	a3c080e7          	jalr	-1476(ra) # 12cf8 <write>
   122c4:	037103a3          	sb	s7,39(sp)
   122c8:	00200513          	li	a0,2
   122cc:	02710593          	add	a1,sp,39
   122d0:	00100613          	li	a2,1
   122d4:	00001097          	auipc	ra,0x1
   122d8:	a24080e7          	jalr	-1500(ra) # 12cf8 <write>
   122dc:	01c12503          	lw	a0,28(sp)
   122e0:	00ad8a33          	add	s4,s11,a0
   122e4:	000a2483          	lw	s1,0(s4)
   122e8:	0004cc63          	bltz	s1,12300 <.LBB7_15>
   122ec:	04049e63          	bnez	s1,12348 <.LBB7_18>
   122f0:	03000513          	li	a0,48
   122f4:	02a10d23          	sb	a0,58(sp)
   122f8:	01300513          	li	a0,19
   122fc:	0880006f          	j	12384 <.LBB7_21>

00012300 <.LBB7_15>:
   12300:	000156b7          	lui	a3,0x15
   12304:	da86a603          	lw	a2,-600(a3) # 14da8 <output_buffer_index>
   12308:	00160513          	add	a0,a2,1
   1230c:	40153513          	sltiu	a0,a0,1025
   12310:	00163593          	seqz	a1,a2
   12314:	00a5e533          	or	a0,a1,a0
   12318:	00051e63          	bnez	a0,12334 <.LBB7_17>
   1231c:	00100513          	li	a0,1
   12320:	000a8593          	mv	a1,s5
   12324:	00001097          	auipc	ra,0x1
   12328:	9d4080e7          	jalr	-1580(ra) # 12cf8 <write>
   1232c:	000156b7          	lui	a3,0x15
   12330:	00000613          	li	a2,0

00012334 <.LBB7_17>:
   12334:	01560533          	add	a0,a2,s5
   12338:	01750023          	sb	s7,0(a0)
   1233c:	00160513          	add	a0,a2,1
   12340:	daa6a423          	sw	a0,-600(a3) # 14da8 <output_buffer_index>
   12344:	409004b3          	neg	s1,s1

00012348 <.LBB7_18>:
   12348:	01300513          	li	a0,19

0001234c <.LBB7_19>:
   1234c:	038495b3          	mulh	a1,s1,s8
   12350:	01f5d613          	srl	a2,a1,0x1f
   12354:	4025d593          	sra	a1,a1,0x2
   12358:	00c585b3          	add	a1,a1,a2
   1235c:	03958633          	mul	a2,a1,s9
   12360:	40c48633          	sub	a2,s1,a2
   12364:	03060613          	add	a2,a2,48
   12368:	00a406b3          	add	a3,s0,a0
   1236c:	00c68023          	sb	a2,0(a3)
   12370:	00948613          	add	a2,s1,9
   12374:	fff50513          	add	a0,a0,-1
   12378:	00058493          	mv	s1,a1
   1237c:	fda678e3          	bgeu	a2,s10,1234c <.LBB7_19>
   12380:	00150513          	add	a0,a0,1

00012384 <.LBB7_21>:
   12384:	00a405b3          	add	a1,s0,a0
   12388:	01400613          	li	a2,20
   1238c:	40a60633          	sub	a2,a2,a0
   12390:	00200513          	li	a0,2
   12394:	00001097          	auipc	ra,0x1
   12398:	964080e7          	jalr	-1692(ra) # 12cf8 <write>
   1239c:	04d00513          	li	a0,77
   123a0:	02a103a3          	sb	a0,39(sp)
   123a4:	00200513          	li	a0,2
   123a8:	02710593          	add	a1,sp,39
   123ac:	00100613          	li	a2,1
   123b0:	00001097          	auipc	ra,0x1
   123b4:	948080e7          	jalr	-1720(ra) # 12cf8 <write>
   123b8:	037103a3          	sb	s7,39(sp)
   123bc:	00200513          	li	a0,2
   123c0:	02710593          	add	a1,sp,39
   123c4:	00100613          	li	a2,1
   123c8:	00001097          	auipc	ra,0x1
   123cc:	930080e7          	jalr	-1744(ra) # 12cf8 <write>
   123d0:	01812503          	lw	a0,24(sp)
   123d4:	00ad8b33          	add	s6,s11,a0
   123d8:	000b2483          	lw	s1,0(s6)
   123dc:	0004cc63          	bltz	s1,123f4 <.LBB7_24>
   123e0:	04049e63          	bnez	s1,1243c <.LBB7_27>
   123e4:	03000513          	li	a0,48
   123e8:	02a10d23          	sb	a0,58(sp)
   123ec:	01300513          	li	a0,19
   123f0:	0880006f          	j	12478 <.LBB7_30>

000123f4 <.LBB7_24>:
   123f4:	000156b7          	lui	a3,0x15
   123f8:	da86a603          	lw	a2,-600(a3) # 14da8 <output_buffer_index>
   123fc:	00160513          	add	a0,a2,1
   12400:	40153513          	sltiu	a0,a0,1025
   12404:	00163593          	seqz	a1,a2
   12408:	00a5e533          	or	a0,a1,a0
   1240c:	00051e63          	bnez	a0,12428 <.LBB7_26>
   12410:	00100513          	li	a0,1
   12414:	000a8593          	mv	a1,s5
   12418:	00001097          	auipc	ra,0x1
   1241c:	8e0080e7          	jalr	-1824(ra) # 12cf8 <write>
   12420:	000156b7          	lui	a3,0x15
   12424:	00000613          	li	a2,0

00012428 <.LBB7_26>:
   12428:	01560533          	add	a0,a2,s5
   1242c:	01750023          	sb	s7,0(a0)
   12430:	00160513          	add	a0,a2,1
   12434:	daa6a423          	sw	a0,-600(a3) # 14da8 <output_buffer_index>
   12438:	409004b3          	neg	s1,s1

0001243c <.LBB7_27>:
   1243c:	01300513          	li	a0,19

00012440 <.LBB7_28>:
   12440:	038495b3          	mulh	a1,s1,s8
   12444:	01f5d613          	srl	a2,a1,0x1f
   12448:	4025d593          	sra	a1,a1,0x2
   1244c:	00c585b3          	add	a1,a1,a2
   12450:	03958633          	mul	a2,a1,s9
   12454:	40c48633          	sub	a2,s1,a2
   12458:	03060613          	add	a2,a2,48
   1245c:	00a406b3          	add	a3,s0,a0
   12460:	00c68023          	sb	a2,0(a3)
   12464:	00948613          	add	a2,s1,9
   12468:	fff50513          	add	a0,a0,-1
   1246c:	00058493          	mv	s1,a1
   12470:	fda678e3          	bgeu	a2,s10,12440 <.LBB7_28>
   12474:	00150513          	add	a0,a0,1

00012478 <.LBB7_30>:
   12478:	00a405b3          	add	a1,s0,a0
   1247c:	01400613          	li	a2,20
   12480:	40a60633          	sub	a2,a2,a0
   12484:	00200513          	li	a0,2
   12488:	00001097          	auipc	ra,0x1
   1248c:	870080e7          	jalr	-1936(ra) # 12cf8 <write>
   12490:	05300513          	li	a0,83
   12494:	02a103a3          	sb	a0,39(sp)
   12498:	00200513          	li	a0,2
   1249c:	02710593          	add	a1,sp,39
   124a0:	00100613          	li	a2,1
   124a4:	00001097          	auipc	ra,0x1
   124a8:	854080e7          	jalr	-1964(ra) # 12cf8 <write>
   124ac:	037103a3          	sb	s7,39(sp)
   124b0:	00200513          	li	a0,2
   124b4:	02710593          	add	a1,sp,39
   124b8:	00100613          	li	a2,1
   124bc:	00001097          	auipc	ra,0x1
   124c0:	83c080e7          	jalr	-1988(ra) # 12cf8 <write>
   124c4:	01412503          	lw	a0,20(sp)
   124c8:	00ad8db3          	add	s11,s11,a0
   124cc:	000da483          	lw	s1,0(s11)
   124d0:	0004cc63          	bltz	s1,124e8 <.LBB7_33>
   124d4:	04049e63          	bnez	s1,12530 <.LBB7_36>
   124d8:	03000513          	li	a0,48
   124dc:	02a10d23          	sb	a0,58(sp)
   124e0:	01300513          	li	a0,19
   124e4:	0880006f          	j	1256c <.LBB7_39>

000124e8 <.LBB7_33>:
   124e8:	000156b7          	lui	a3,0x15
   124ec:	da86a603          	lw	a2,-600(a3) # 14da8 <output_buffer_index>
   124f0:	00160513          	add	a0,a2,1
   124f4:	40153513          	sltiu	a0,a0,1025
   124f8:	00163593          	seqz	a1,a2
   124fc:	00a5e533          	or	a0,a1,a0
   12500:	00051e63          	bnez	a0,1251c <.LBB7_35>
   12504:	00100513          	li	a0,1
   12508:	000a8593          	mv	a1,s5
   1250c:	00000097          	auipc	ra,0x0
   12510:	7ec080e7          	jalr	2028(ra) # 12cf8 <write>
   12514:	000156b7          	lui	a3,0x15
   12518:	00000613          	li	a2,0

0001251c <.LBB7_35>:
   1251c:	01560533          	add	a0,a2,s5
   12520:	01750023          	sb	s7,0(a0)
   12524:	00160513          	add	a0,a2,1
   12528:	daa6a423          	sw	a0,-600(a3) # 14da8 <output_buffer_index>
   1252c:	409004b3          	neg	s1,s1

00012530 <.LBB7_36>:
   12530:	01300513          	li	a0,19

00012534 <.LBB7_37>:
   12534:	038495b3          	mulh	a1,s1,s8
   12538:	01f5d613          	srl	a2,a1,0x1f
   1253c:	4025d593          	sra	a1,a1,0x2
   12540:	00c585b3          	add	a1,a1,a2
   12544:	03958633          	mul	a2,a1,s9
   12548:	40c48633          	sub	a2,s1,a2
   1254c:	03060613          	add	a2,a2,48
   12550:	00a406b3          	add	a3,s0,a0
   12554:	00c68023          	sb	a2,0(a3)
   12558:	00948613          	add	a2,s1,9
   1255c:	fff50513          	add	a0,a0,-1
   12560:	00058493          	mv	s1,a1
   12564:	fda678e3          	bgeu	a2,s10,12534 <.LBB7_37>
   12568:	00150513          	add	a0,a0,1

0001256c <.LBB7_39>:
   1256c:	00a405b3          	add	a1,s0,a0
   12570:	01400613          	li	a2,20
   12574:	40a60633          	sub	a2,a2,a0
   12578:	00200513          	li	a0,2
   1257c:	00000097          	auipc	ra,0x0
   12580:	77c080e7          	jalr	1916(ra) # 12cf8 <write>
   12584:	07500513          	li	a0,117
   12588:	02a103a3          	sb	a0,39(sp)
   1258c:	00200513          	li	a0,2
   12590:	02710593          	add	a1,sp,39
   12594:	00100613          	li	a2,1
   12598:	00000097          	auipc	ra,0x0
   1259c:	760080e7          	jalr	1888(ra) # 12cf8 <write>
   125a0:	07300513          	li	a0,115
   125a4:	02a103a3          	sb	a0,39(sp)
   125a8:	00200513          	li	a0,2
   125ac:	02710593          	add	a1,sp,39
   125b0:	00100613          	li	a2,1
   125b4:	00000097          	auipc	ra,0x0
   125b8:	744080e7          	jalr	1860(ra) # 12cf8 <write>
   125bc:	039103a3          	sb	s9,39(sp)
   125c0:	00200513          	li	a0,2
   125c4:	02710593          	add	a1,sp,39
   125c8:	00100613          	li	a2,1
   125cc:	00000097          	auipc	ra,0x0
   125d0:	72c080e7          	jalr	1836(ra) # 12cf8 <write>
   125d4:	000154b7          	lui	s1,0x15
   125d8:	da84a603          	lw	a2,-600(s1) # 14da8 <output_buffer_index>
   125dc:	a80602e3          	beqz	a2,12060 <.LBB7_2>
   125e0:	00200513          	li	a0,2
   125e4:	000a8593          	mv	a1,s5
   125e8:	00000097          	auipc	ra,0x0
   125ec:	710080e7          	jalr	1808(ra) # 12cf8 <write>
   125f0:	da04a423          	sw	zero,-600(s1)
   125f4:	a6dff06f          	j	12060 <.LBB7_2>

000125f8 <.LBB7_41>:
   125f8:	05400413          	li	s0,84
   125fc:	028103a3          	sb	s0,39(sp)
   12600:	00200513          	li	a0,2
   12604:	02710593          	add	a1,sp,39
   12608:	00100613          	li	a2,1
   1260c:	00000097          	auipc	ra,0x0
   12610:	6ec080e7          	jalr	1772(ra) # 12cf8 <write>
   12614:	04f00513          	li	a0,79
   12618:	02a103a3          	sb	a0,39(sp)
   1261c:	00200513          	li	a0,2
   12620:	02710593          	add	a1,sp,39
   12624:	00100613          	li	a2,1
   12628:	00000097          	auipc	ra,0x0
   1262c:	6d0080e7          	jalr	1744(ra) # 12cf8 <write>
   12630:	028103a3          	sb	s0,39(sp)
   12634:	00200513          	li	a0,2
   12638:	02710593          	add	a1,sp,39
   1263c:	00100613          	li	a2,1
   12640:	00000097          	auipc	ra,0x0
   12644:	6b8080e7          	jalr	1720(ra) # 12cf8 <write>
   12648:	04100513          	li	a0,65
   1264c:	02a103a3          	sb	a0,39(sp)
   12650:	00200513          	li	a0,2
   12654:	02710593          	add	a1,sp,39
   12658:	00100613          	li	a2,1
   1265c:	00000097          	auipc	ra,0x0
   12660:	69c080e7          	jalr	1692(ra) # 12cf8 <write>
   12664:	04c00513          	li	a0,76
   12668:	02a103a3          	sb	a0,39(sp)
   1266c:	00200513          	li	a0,2
   12670:	02710593          	add	a1,sp,39
   12674:	00100613          	li	a2,1
   12678:	00000097          	auipc	ra,0x0
   1267c:	680080e7          	jalr	1664(ra) # 12cf8 <write>
   12680:	03a00513          	li	a0,58
   12684:	02a103a3          	sb	a0,39(sp)
   12688:	00200513          	li	a0,2
   1268c:	02710593          	add	a1,sp,39
   12690:	00100613          	li	a2,1
   12694:	00000097          	auipc	ra,0x0
   12698:	664080e7          	jalr	1636(ra) # 12cf8 <write>
   1269c:	02000513          	li	a0,32
   126a0:	02a103a3          	sb	a0,39(sp)
   126a4:	00200513          	li	a0,2
   126a8:	02710593          	add	a1,sp,39
   126ac:	00100613          	li	a2,1
   126b0:	00000097          	auipc	ra,0x0
   126b4:	648080e7          	jalr	1608(ra) # 12cf8 <write>
   126b8:	00015537          	lui	a0,0x15
   126bc:	1bc52403          	lw	s0,444(a0) # 151bc <timer_h>
   126c0:	00044c63          	bltz	s0,126d8 <.LBB7_44>
   126c4:	06041463          	bnez	s0,1272c <.LBB7_47>
   126c8:	03000513          	li	a0,48
   126cc:	02a10d23          	sb	a0,58(sp)
   126d0:	01300513          	li	a0,19
   126d4:	0a80006f          	j	1277c <.LBB7_50>

000126d8 <.LBB7_44>:
   126d8:	000154b7          	lui	s1,0x15
   126dc:	da84a603          	lw	a2,-600(s1) # 14da8 <output_buffer_index>
   126e0:	00160513          	add	a0,a2,1
   126e4:	40153513          	sltiu	a0,a0,1025
   126e8:	00163593          	seqz	a1,a2
   126ec:	00a5e533          	or	a0,a1,a0
   126f0:	00051e63          	bnez	a0,1270c <.LBB7_46>
   126f4:	00015537          	lui	a0,0x15
   126f8:	dbc50593          	add	a1,a0,-580 # 14dbc <output_buffer>
   126fc:	00100513          	li	a0,1
   12700:	00000097          	auipc	ra,0x0
   12704:	5f8080e7          	jalr	1528(ra) # 12cf8 <write>
   12708:	00000613          	li	a2,0

0001270c <.LBB7_46>:
   1270c:	00015537          	lui	a0,0x15
   12710:	dbc50513          	add	a0,a0,-580 # 14dbc <output_buffer>
   12714:	00a60533          	add	a0,a2,a0
   12718:	02d00593          	li	a1,45
   1271c:	00b50023          	sb	a1,0(a0)
   12720:	00160513          	add	a0,a2,1
   12724:	daa4a423          	sw	a0,-600(s1)
   12728:	40800433          	neg	s0,s0

0001272c <.LBB7_47>:
   1272c:	01300813          	li	a6,19
   12730:	666665b7          	lui	a1,0x66666
   12734:	66758593          	add	a1,a1,1639 # 66666667 <timer_us+0x6664e4ab>
   12738:	00a00613          	li	a2,10
   1273c:	02710713          	add	a4,sp,39
   12740:	01300693          	li	a3,19

00012744 <.LBB7_48>:
   12744:	02b417b3          	mulh	a5,s0,a1
   12748:	01f7d493          	srl	s1,a5,0x1f
   1274c:	4027d793          	sra	a5,a5,0x2
   12750:	009787b3          	add	a5,a5,s1
   12754:	02c784b3          	mul	s1,a5,a2
   12758:	409404b3          	sub	s1,s0,s1
   1275c:	03048493          	add	s1,s1,48
   12760:	00d70533          	add	a0,a4,a3
   12764:	00950023          	sb	s1,0(a0)
   12768:	00940513          	add	a0,s0,9
   1276c:	fff68693          	add	a3,a3,-1
   12770:	00078413          	mv	s0,a5
   12774:	fd0578e3          	bgeu	a0,a6,12744 <.LBB7_48>
   12778:	00168513          	add	a0,a3,1

0001277c <.LBB7_50>:
   1277c:	02710593          	add	a1,sp,39
   12780:	00a585b3          	add	a1,a1,a0
   12784:	01400613          	li	a2,20
   12788:	40a60633          	sub	a2,a2,a0
   1278c:	00200513          	li	a0,2
   12790:	00000097          	auipc	ra,0x0
   12794:	568080e7          	jalr	1384(ra) # 12cf8 <write>
   12798:	04800513          	li	a0,72
   1279c:	02a103a3          	sb	a0,39(sp)
   127a0:	00200513          	li	a0,2
   127a4:	02710593          	add	a1,sp,39
   127a8:	00100613          	li	a2,1
   127ac:	00000097          	auipc	ra,0x0
   127b0:	54c080e7          	jalr	1356(ra) # 12cf8 <write>
   127b4:	02d00513          	li	a0,45
   127b8:	02a103a3          	sb	a0,39(sp)
   127bc:	00200513          	li	a0,2
   127c0:	02710593          	add	a1,sp,39
   127c4:	00100613          	li	a2,1
   127c8:	00000097          	auipc	ra,0x0
   127cc:	530080e7          	jalr	1328(ra) # 12cf8 <write>
   127d0:	00016537          	lui	a0,0x16
   127d4:	1bc52403          	lw	s0,444(a0) # 161bc <timer_m>
   127d8:	00044c63          	bltz	s0,127f0 <.LBB7_53>
   127dc:	06041463          	bnez	s0,12844 <.LBB7_56>
   127e0:	03000513          	li	a0,48
   127e4:	02a10d23          	sb	a0,58(sp)
   127e8:	01300513          	li	a0,19
   127ec:	0a80006f          	j	12894 <.LBB7_59>

000127f0 <.LBB7_53>:
   127f0:	000154b7          	lui	s1,0x15
   127f4:	da84a603          	lw	a2,-600(s1) # 14da8 <output_buffer_index>
   127f8:	00160513          	add	a0,a2,1
   127fc:	40153513          	sltiu	a0,a0,1025
   12800:	00163593          	seqz	a1,a2
   12804:	00a5e533          	or	a0,a1,a0
   12808:	00051e63          	bnez	a0,12824 <.LBB7_55>
   1280c:	00015537          	lui	a0,0x15
   12810:	dbc50593          	add	a1,a0,-580 # 14dbc <output_buffer>
   12814:	00100513          	li	a0,1
   12818:	00000097          	auipc	ra,0x0
   1281c:	4e0080e7          	jalr	1248(ra) # 12cf8 <write>
   12820:	00000613          	li	a2,0

00012824 <.LBB7_55>:
   12824:	00015537          	lui	a0,0x15
   12828:	dbc50513          	add	a0,a0,-580 # 14dbc <output_buffer>
   1282c:	00a60533          	add	a0,a2,a0
   12830:	02d00593          	li	a1,45
   12834:	00b50023          	sb	a1,0(a0)
   12838:	00160513          	add	a0,a2,1
   1283c:	daa4a423          	sw	a0,-600(s1)
   12840:	40800433          	neg	s0,s0

00012844 <.LBB7_56>:
   12844:	01300813          	li	a6,19
   12848:	666665b7          	lui	a1,0x66666
   1284c:	66758593          	add	a1,a1,1639 # 66666667 <timer_us+0x6664e4ab>
   12850:	00a00613          	li	a2,10
   12854:	02710713          	add	a4,sp,39
   12858:	01300693          	li	a3,19

0001285c <.LBB7_57>:
   1285c:	02b417b3          	mulh	a5,s0,a1
   12860:	01f7d493          	srl	s1,a5,0x1f
   12864:	4027d793          	sra	a5,a5,0x2
   12868:	009787b3          	add	a5,a5,s1
   1286c:	02c784b3          	mul	s1,a5,a2
   12870:	409404b3          	sub	s1,s0,s1
   12874:	03048493          	add	s1,s1,48
   12878:	00d70533          	add	a0,a4,a3
   1287c:	00950023          	sb	s1,0(a0)
   12880:	00940513          	add	a0,s0,9
   12884:	fff68693          	add	a3,a3,-1
   12888:	00078413          	mv	s0,a5
   1288c:	fd0578e3          	bgeu	a0,a6,1285c <.LBB7_57>
   12890:	00168513          	add	a0,a3,1

00012894 <.LBB7_59>:
   12894:	02710593          	add	a1,sp,39
   12898:	00a585b3          	add	a1,a1,a0
   1289c:	01400613          	li	a2,20
   128a0:	40a60633          	sub	a2,a2,a0
   128a4:	00200513          	li	a0,2
   128a8:	00000097          	auipc	ra,0x0
   128ac:	450080e7          	jalr	1104(ra) # 12cf8 <write>
   128b0:	04d00513          	li	a0,77
   128b4:	02a103a3          	sb	a0,39(sp)
   128b8:	00200513          	li	a0,2
   128bc:	02710593          	add	a1,sp,39
   128c0:	00100613          	li	a2,1
   128c4:	00000097          	auipc	ra,0x0
   128c8:	434080e7          	jalr	1076(ra) # 12cf8 <write>
   128cc:	02d00513          	li	a0,45
   128d0:	02a103a3          	sb	a0,39(sp)
   128d4:	00200513          	li	a0,2
   128d8:	02710593          	add	a1,sp,39
   128dc:	00100613          	li	a2,1
   128e0:	00000097          	auipc	ra,0x0
   128e4:	418080e7          	jalr	1048(ra) # 12cf8 <write>
   128e8:	00017537          	lui	a0,0x17
   128ec:	1bc52403          	lw	s0,444(a0) # 171bc <timer_s>
   128f0:	00044c63          	bltz	s0,12908 <.LBB7_62>
   128f4:	06041463          	bnez	s0,1295c <.LBB7_65>
   128f8:	03000513          	li	a0,48
   128fc:	02a10d23          	sb	a0,58(sp)
   12900:	01300513          	li	a0,19
   12904:	0a80006f          	j	129ac <.LBB7_68>

00012908 <.LBB7_62>:
   12908:	000154b7          	lui	s1,0x15
   1290c:	da84a603          	lw	a2,-600(s1) # 14da8 <output_buffer_index>
   12910:	00160513          	add	a0,a2,1
   12914:	40153513          	sltiu	a0,a0,1025
   12918:	00163593          	seqz	a1,a2
   1291c:	00a5e533          	or	a0,a1,a0
   12920:	00051e63          	bnez	a0,1293c <.LBB7_64>
   12924:	00015537          	lui	a0,0x15
   12928:	dbc50593          	add	a1,a0,-580 # 14dbc <output_buffer>
   1292c:	00100513          	li	a0,1
   12930:	00000097          	auipc	ra,0x0
   12934:	3c8080e7          	jalr	968(ra) # 12cf8 <write>
   12938:	00000613          	li	a2,0

0001293c <.LBB7_64>:
   1293c:	00015537          	lui	a0,0x15
   12940:	dbc50513          	add	a0,a0,-580 # 14dbc <output_buffer>
   12944:	00a60533          	add	a0,a2,a0
   12948:	02d00593          	li	a1,45
   1294c:	00b50023          	sb	a1,0(a0)
   12950:	00160513          	add	a0,a2,1
   12954:	daa4a423          	sw	a0,-600(s1)
   12958:	40800433          	neg	s0,s0

0001295c <.LBB7_65>:
   1295c:	01300813          	li	a6,19
   12960:	666665b7          	lui	a1,0x66666
   12964:	66758593          	add	a1,a1,1639 # 66666667 <timer_us+0x6664e4ab>
   12968:	00a00613          	li	a2,10
   1296c:	02710713          	add	a4,sp,39
   12970:	01300693          	li	a3,19

00012974 <.LBB7_66>:
   12974:	02b417b3          	mulh	a5,s0,a1
   12978:	01f7d493          	srl	s1,a5,0x1f
   1297c:	4027d793          	sra	a5,a5,0x2
   12980:	009787b3          	add	a5,a5,s1
   12984:	02c784b3          	mul	s1,a5,a2
   12988:	409404b3          	sub	s1,s0,s1
   1298c:	03048493          	add	s1,s1,48
   12990:	00d70533          	add	a0,a4,a3
   12994:	00950023          	sb	s1,0(a0)
   12998:	00940513          	add	a0,s0,9
   1299c:	fff68693          	add	a3,a3,-1
   129a0:	00078413          	mv	s0,a5
   129a4:	fd0578e3          	bgeu	a0,a6,12974 <.LBB7_66>
   129a8:	00168513          	add	a0,a3,1

000129ac <.LBB7_68>:
   129ac:	02710593          	add	a1,sp,39
   129b0:	00a585b3          	add	a1,a1,a0
   129b4:	01400613          	li	a2,20
   129b8:	40a60633          	sub	a2,a2,a0
   129bc:	00200513          	li	a0,2
   129c0:	00000097          	auipc	ra,0x0
   129c4:	338080e7          	jalr	824(ra) # 12cf8 <write>
   129c8:	05300513          	li	a0,83
   129cc:	02a103a3          	sb	a0,39(sp)
   129d0:	00200513          	li	a0,2
   129d4:	02710593          	add	a1,sp,39
   129d8:	00100613          	li	a2,1
   129dc:	00000097          	auipc	ra,0x0
   129e0:	31c080e7          	jalr	796(ra) # 12cf8 <write>
   129e4:	02d00513          	li	a0,45
   129e8:	02a103a3          	sb	a0,39(sp)
   129ec:	00200513          	li	a0,2
   129f0:	02710593          	add	a1,sp,39
   129f4:	00100613          	li	a2,1
   129f8:	00000097          	auipc	ra,0x0
   129fc:	300080e7          	jalr	768(ra) # 12cf8 <write>
   12a00:	00018537          	lui	a0,0x18
   12a04:	1bc52403          	lw	s0,444(a0) # 181bc <timer_us>
   12a08:	00044c63          	bltz	s0,12a20 <.LBB7_71>
   12a0c:	06041463          	bnez	s0,12a74 <.LBB7_74>
   12a10:	03000513          	li	a0,48
   12a14:	02a10d23          	sb	a0,58(sp)
   12a18:	01300513          	li	a0,19
   12a1c:	0a80006f          	j	12ac4 <.LBB7_77>

00012a20 <.LBB7_71>:
   12a20:	000154b7          	lui	s1,0x15
   12a24:	da84a603          	lw	a2,-600(s1) # 14da8 <output_buffer_index>
   12a28:	00160513          	add	a0,a2,1
   12a2c:	40153513          	sltiu	a0,a0,1025
   12a30:	00163593          	seqz	a1,a2
   12a34:	00a5e533          	or	a0,a1,a0
   12a38:	00051e63          	bnez	a0,12a54 <.LBB7_73>
   12a3c:	00015537          	lui	a0,0x15
   12a40:	dbc50593          	add	a1,a0,-580 # 14dbc <output_buffer>
   12a44:	00100513          	li	a0,1
   12a48:	00000097          	auipc	ra,0x0
   12a4c:	2b0080e7          	jalr	688(ra) # 12cf8 <write>
   12a50:	00000613          	li	a2,0

00012a54 <.LBB7_73>:
   12a54:	00015537          	lui	a0,0x15
   12a58:	dbc50513          	add	a0,a0,-580 # 14dbc <output_buffer>
   12a5c:	00a60533          	add	a0,a2,a0
   12a60:	02d00593          	li	a1,45
   12a64:	00b50023          	sb	a1,0(a0)
   12a68:	00160513          	add	a0,a2,1
   12a6c:	daa4a423          	sw	a0,-600(s1)
   12a70:	40800433          	neg	s0,s0

00012a74 <.LBB7_74>:
   12a74:	01300813          	li	a6,19
   12a78:	666665b7          	lui	a1,0x66666
   12a7c:	66758593          	add	a1,a1,1639 # 66666667 <timer_us+0x6664e4ab>
   12a80:	00a00613          	li	a2,10
   12a84:	02710713          	add	a4,sp,39
   12a88:	01300693          	li	a3,19

00012a8c <.LBB7_75>:
   12a8c:	02b417b3          	mulh	a5,s0,a1
   12a90:	01f7d493          	srl	s1,a5,0x1f
   12a94:	4027d793          	sra	a5,a5,0x2
   12a98:	009787b3          	add	a5,a5,s1
   12a9c:	02c784b3          	mul	s1,a5,a2
   12aa0:	409404b3          	sub	s1,s0,s1
   12aa4:	03048493          	add	s1,s1,48
   12aa8:	00d70533          	add	a0,a4,a3
   12aac:	00950023          	sb	s1,0(a0)
   12ab0:	00940513          	add	a0,s0,9
   12ab4:	fff68693          	add	a3,a3,-1
   12ab8:	00078413          	mv	s0,a5
   12abc:	fd0578e3          	bgeu	a0,a6,12a8c <.LBB7_75>
   12ac0:	00168513          	add	a0,a3,1

00012ac4 <.LBB7_77>:
   12ac4:	02710593          	add	a1,sp,39
   12ac8:	00a585b3          	add	a1,a1,a0
   12acc:	01400613          	li	a2,20
   12ad0:	40a60633          	sub	a2,a2,a0
   12ad4:	00200513          	li	a0,2
   12ad8:	00000097          	auipc	ra,0x0
   12adc:	220080e7          	jalr	544(ra) # 12cf8 <write>
   12ae0:	07500513          	li	a0,117
   12ae4:	02a103a3          	sb	a0,39(sp)
   12ae8:	00200513          	li	a0,2
   12aec:	02710593          	add	a1,sp,39
   12af0:	00100613          	li	a2,1
   12af4:	00000097          	auipc	ra,0x0
   12af8:	204080e7          	jalr	516(ra) # 12cf8 <write>
   12afc:	07300513          	li	a0,115
   12b00:	02a103a3          	sb	a0,39(sp)
   12b04:	00200513          	li	a0,2
   12b08:	02710593          	add	a1,sp,39
   12b0c:	00100613          	li	a2,1
   12b10:	00000097          	auipc	ra,0x0
   12b14:	1e8080e7          	jalr	488(ra) # 12cf8 <write>
   12b18:	00a00513          	li	a0,10
   12b1c:	02a103a3          	sb	a0,39(sp)
   12b20:	00200513          	li	a0,2
   12b24:	02710593          	add	a1,sp,39
   12b28:	00100613          	li	a2,1
   12b2c:	00000097          	auipc	ra,0x0
   12b30:	1cc080e7          	jalr	460(ra) # 12cf8 <write>
   12b34:	00015437          	lui	s0,0x15
   12b38:	da842603          	lw	a2,-600(s0) # 14da8 <output_buffer_index>
   12b3c:	00060e63          	beqz	a2,12b58 <.LBB7_79>
   12b40:	00015537          	lui	a0,0x15
   12b44:	dbc50593          	add	a1,a0,-580 # 14dbc <output_buffer>
   12b48:	00200513          	li	a0,2
   12b4c:	00000097          	auipc	ra,0x0
   12b50:	1ac080e7          	jalr	428(ra) # 12cf8 <write>
   12b54:	da042423          	sw	zero,-600(s0)

00012b58 <.LBB7_79>:
   12b58:	03c12d83          	lw	s11,60(sp)
   12b5c:	04012d03          	lw	s10,64(sp)
   12b60:	04412c83          	lw	s9,68(sp)
   12b64:	04812c03          	lw	s8,72(sp)
   12b68:	04c12b83          	lw	s7,76(sp)
   12b6c:	05012b03          	lw	s6,80(sp)
   12b70:	05412a83          	lw	s5,84(sp)
   12b74:	05812a03          	lw	s4,88(sp)
   12b78:	05c12983          	lw	s3,92(sp)
   12b7c:	06012903          	lw	s2,96(sp)
   12b80:	06412483          	lw	s1,100(sp)
   12b84:	06812403          	lw	s0,104(sp)
   12b88:	06c12083          	lw	ra,108(sp)
   12b8c:	07010113          	add	sp,sp,112
   12b90:	00008067          	ret

00012b94 <starttime>:
   12b94:	00015537          	lui	a0,0x15
   12b98:	dac50513          	add	a0,a0,-596 # 14dac <timer_start>
   12b9c:	00000593          	li	a1,0
   12ba0:	00000317          	auipc	t1,0x0
   12ba4:	16430067          	jr	356(t1) # 12d04 <gettimeofday>

00012ba8 <stoptime>:
   12ba8:	ff010113          	add	sp,sp,-16
   12bac:	00112623          	sw	ra,12(sp)
   12bb0:	00812423          	sw	s0,8(sp)
   12bb4:	00912223          	sw	s1,4(sp)
   12bb8:	000154b7          	lui	s1,0x15
   12bbc:	db448413          	add	s0,s1,-588 # 14db4 <timer_end>
   12bc0:	00040513          	mv	a0,s0
   12bc4:	00000593          	li	a1,0
   12bc8:	00000097          	auipc	ra,0x0
   12bcc:	13c080e7          	jalr	316(ra) # 12d04 <gettimeofday>
   12bd0:	db44a503          	lw	a0,-588(s1)
   12bd4:	000155b7          	lui	a1,0x15
   12bd8:	dac5a603          	lw	a2,-596(a1) # 14dac <timer_start>
   12bdc:	40c50533          	sub	a0,a0,a2
   12be0:	000f4637          	lui	a2,0xf4
   12be4:	24060613          	add	a2,a2,576 # f4240 <timer_us+0xdc084>
   12be8:	00442683          	lw	a3,4(s0)
   12bec:	dac58593          	add	a1,a1,-596
   12bf0:	00015837          	lui	a6,0x15
   12bf4:	d9c82883          	lw	a7,-612(a6) # 14d9c <timer_idx>
   12bf8:	0045a583          	lw	a1,4(a1)
   12bfc:	000184b7          	lui	s1,0x18
   12c00:	1bc48493          	add	s1,s1,444 # 181bc <timer_us>
   12c04:	00289413          	sll	s0,a7,0x2
   12c08:	009404b3          	add	s1,s0,s1
   12c0c:	0004a703          	lw	a4,0(s1)
   12c10:	02c50533          	mul	a0,a0,a2
   12c14:	00d50533          	add	a0,a0,a3
   12c18:	40b50533          	sub	a0,a0,a1
   12c1c:	00e50533          	add	a0,a0,a4
   12c20:	431be5b7          	lui	a1,0x431be
   12c24:	e8358593          	add	a1,a1,-381 # 431bde83 <timer_us+0x431a5cc7>
   12c28:	02b515b3          	mulh	a1,a0,a1
   12c2c:	000176b7          	lui	a3,0x17
   12c30:	1bc68693          	add	a3,a3,444 # 171bc <timer_s>
   12c34:	00d406b3          	add	a3,s0,a3
   12c38:	0006a703          	lw	a4,0(a3)
   12c3c:	01f5d793          	srl	a5,a1,0x1f
   12c40:	4125d593          	sra	a1,a1,0x12
   12c44:	00f585b3          	add	a1,a1,a5
   12c48:	00b70733          	add	a4,a4,a1
   12c4c:	02c585b3          	mul	a1,a1,a2
   12c50:	40b50533          	sub	a0,a0,a1
   12c54:	00a4a023          	sw	a0,0(s1)
   12c58:	88889537          	lui	a0,0x88889
   12c5c:	88950513          	add	a0,a0,-1911 # 88888889 <timer_us+0x888706cd>
   12c60:	02a715b3          	mulh	a1,a4,a0
   12c64:	00e585b3          	add	a1,a1,a4
   12c68:	00016637          	lui	a2,0x16
   12c6c:	1bc60613          	add	a2,a2,444 # 161bc <timer_m>
   12c70:	00c40633          	add	a2,s0,a2
   12c74:	00062783          	lw	a5,0(a2)
   12c78:	01f5d493          	srl	s1,a1,0x1f
   12c7c:	4055d593          	sra	a1,a1,0x5
   12c80:	009585b3          	add	a1,a1,s1
   12c84:	00b787b3          	add	a5,a5,a1
   12c88:	03c00493          	li	s1,60
   12c8c:	029585b3          	mul	a1,a1,s1
   12c90:	40b705b3          	sub	a1,a4,a1
   12c94:	00b6a023          	sw	a1,0(a3)
   12c98:	02a79533          	mulh	a0,a5,a0
   12c9c:	00f50533          	add	a0,a0,a5
   12ca0:	000155b7          	lui	a1,0x15
   12ca4:	1bc58593          	add	a1,a1,444 # 151bc <timer_h>
   12ca8:	00b405b3          	add	a1,s0,a1
   12cac:	0005a683          	lw	a3,0(a1)
   12cb0:	01f55713          	srl	a4,a0,0x1f
   12cb4:	40555513          	sra	a0,a0,0x5
   12cb8:	00e50533          	add	a0,a0,a4
   12cbc:	00a686b3          	add	a3,a3,a0
   12cc0:	00d5a023          	sw	a3,0(a1)
   12cc4:	02950533          	mul	a0,a0,s1
   12cc8:	40a78533          	sub	a0,a5,a0
   12ccc:	00a62023          	sw	a0,0(a2)
   12cd0:	00188513          	add	a0,a7,1
   12cd4:	d8a82e23          	sw	a0,-612(a6)
   12cd8:	00412483          	lw	s1,4(sp)
   12cdc:	00812403          	lw	s0,8(sp)
   12ce0:	00c12083          	lw	ra,12(sp)
   12ce4:	01010113          	add	sp,sp,16
   12ce8:	00008067          	ret

00012cec <read>:
   12cec:	03f00893          	li	a7,63
   12cf0:	00000073          	ecall
   12cf4:	00008067          	ret

00012cf8 <write>:
   12cf8:	04000893          	li	a7,64
   12cfc:	00000073          	ecall
   12d00:	00008067          	ret

00012d04 <gettimeofday>:
   12d04:	0a900893          	li	a7,169
   12d08:	00000073          	ecall
   12d0c:	00008067          	ret

00012d10 <_start>:
   12d10:	ff010113          	add	sp,sp,-16
   12d14:	00112623          	sw	ra,12(sp)
   12d18:	00812423          	sw	s0,8(sp)
   12d1c:	fffff097          	auipc	ra,0xfffff
   12d20:	920080e7          	jalr	-1760(ra) # 1163c <main>
   12d24:	00050413          	mv	s0,a0
   12d28:	fffff097          	auipc	ra,0xfffff
   12d2c:	25c080e7          	jalr	604(ra) # 11f84 <after_main>
   12d30:	05d00893          	li	a7,93
   12d34:	00040513          	mv	a0,s0
   12d38:	00000073          	ecall
   12d3c:	00812403          	lw	s0,8(sp)
   12d40:	00c12083          	lw	ra,12(sp)
   12d44:	01010113          	add	sp,sp,16
   12d48:	00008067          	ret

00012d4c <memset>:
   12d4c:	00060e63          	beqz	a2,12d68 <.LBB1_3>
   12d50:	00050693          	mv	a3,a0

00012d54 <.LBB1_2>:
   12d54:	fff60613          	add	a2,a2,-1
   12d58:	00168713          	add	a4,a3,1
   12d5c:	00b68023          	sb	a1,0(a3)
   12d60:	00070693          	mv	a3,a4
   12d64:	fe0618e3          	bnez	a2,12d54 <.LBB1_2>

00012d68 <.LBB1_3>:
   12d68:	00008067          	ret

00012d6c <memcpy>:
   12d6c:	02060263          	beqz	a2,12d90 <.LBB2_3>
   12d70:	00050693          	mv	a3,a0

00012d74 <.LBB2_2>:
   12d74:	00058703          	lb	a4,0(a1)
   12d78:	fff60613          	add	a2,a2,-1
   12d7c:	00158593          	add	a1,a1,1
   12d80:	00168793          	add	a5,a3,1
   12d84:	00e68023          	sb	a4,0(a3)
   12d88:	00078693          	mv	a3,a5
   12d8c:	fe0614e3          	bnez	a2,12d74 <.LBB2_2>

00012d90 <.LBB2_3>:
   12d90:	00008067          	ret
